Archive member included because of file (symbol)

/opt/compiler/glibc-oabi-toolchain-arm-generic/lib/gcc/arm-unknown-linux-gnu/4.3.4/libgcc.a(_udivsi3.o)
                              ./zint-master/backend/code16k.o (__udivsi3)
/opt/compiler/glibc-oabi-toolchain-arm-generic/lib/gcc/arm-unknown-linux-gnu/4.3.4/libgcc.a(_divsi3.o)
                              ./zint-master/backend/aztec.o (__divsi3)
/opt/compiler/glibc-oabi-toolchain-arm-generic/lib/gcc/arm-unknown-linux-gnu/4.3.4/libgcc.a(_umodsi3.o)
                              ./zint-master/backend/2of5.o (__umodsi3)
/opt/compiler/glibc-oabi-toolchain-arm-generic/lib/gcc/arm-unknown-linux-gnu/4.3.4/libgcc.a(_modsi3.o)
                              ./zint-master/backend/aztec.o (__modsi3)
/opt/compiler/glibc-oabi-toolchain-arm-generic/lib/gcc/arm-unknown-linux-gnu/4.3.4/libgcc.a(_dvmd_tls.o)
                              /opt/compiler/glibc-oabi-toolchain-arm-generic/lib/gcc/arm-unknown-linux-gnu/4.3.4/libgcc.a(_udivsi3.o) (__div0)
/opt/compiler/glibc-oabi-toolchain-arm-generic/lib/gcc/arm-unknown-linux-gnu/4.3.4/libgcc.a(_addsubdf3.o)
                              ./zint-master/backend/png.o (__subdf3)
/opt/compiler/glibc-oabi-toolchain-arm-generic/lib/gcc/arm-unknown-linux-gnu/4.3.4/libgcc.a(_muldivdf3.o)
                              ./zint-master/backend/ps.o (__muldf3)
/opt/compiler/glibc-oabi-toolchain-arm-generic/lib/gcc/arm-unknown-linux-gnu/4.3.4/libgcc.a(_cmpdf2.o)
                              ./zint-master/backend/common.o (__gtdf2)
/opt/compiler/glibc-oabi-toolchain-arm-generic/lib/gcc/arm-unknown-linux-gnu/4.3.4/libgcc.a(_fixdfsi.o)
                              ./zint-master/backend/pdf417.o (__fixdfsi)
/opt/compiler/glibc-oabi-toolchain-arm-generic/lib/gcc/arm-unknown-linux-gnu/4.3.4/libgcc.a(_fixunsdfsi.o)
                              /home/pos/NEWPOS/FDx_SDK_PRO_LINUX_ARM11_OABI_3_7_1_REV922/lib/arm11_oabi/libsgfdu04.so (__fixunsdfsi)
/opt/compiler/glibc-oabi-toolchain-arm-generic/lib/gcc/arm-unknown-linux-gnu/4.3.4/libgcc.a(_truncdfsf2.o)
                              ./zint-master/backend/code1.o (__truncdfsf2)
/opt/compiler/glibc-oabi-toolchain-arm-generic/lib/gcc/arm-unknown-linux-gnu/4.3.4/libgcc.a(_addsubsf3.o)
                              ./zint-master/backend/code16k.o (__subsf3)
/opt/compiler/glibc-oabi-toolchain-arm-generic/lib/gcc/arm-unknown-linux-gnu/4.3.4/libgcc.a(_muldivsf3.o)
                              ./zint-master/backend/png.o (__mulsf3)
/opt/compiler/glibc-oabi-toolchain-arm-generic/lib/gcc/arm-unknown-linux-gnu/4.3.4/libgcc.a(_cmpsf2.o)
                              ./zint-master/backend/code128.o (__gtsf2)
/opt/compiler/glibc-oabi-toolchain-arm-generic/lib/gcc/arm-unknown-linux-gnu/4.3.4/libgcc.a(_fixsfsi.o)
                              ./zint-master/backend/code1.o (__fixsfsi)
/opt/compiler/glibc-oabi-toolchain-arm-generic/lib/gcc/arm-unknown-linux-gnu/4.3.4/libgcc.a(_fixunssfsi.o)
                              ./zint-master/backend/code16k.o (__fixunssfsi)
/opt/compiler/glibc-oabi-toolchain-arm-generic/lib/gcc/arm-unknown-linux-gnu/4.3.4/libgcc.a(_fixdfdi.o)
                              ./jsonfiles/json_object.o (__fixdfdi)
/opt/compiler/glibc-oabi-toolchain-arm-generic/lib/gcc/arm-unknown-linux-gnu/4.3.4/libgcc.a(_fixunsdfdi.o)
                              /opt/compiler/glibc-oabi-toolchain-arm-generic/lib/gcc/arm-unknown-linux-gnu/4.3.4/libgcc.a(_fixdfdi.o) (__fixunsdfdi)
/opt/compiler/glibc-oabi-toolchain-arm-generic/lib/gcc/arm-unknown-linux-gnu/4.3.4/libgcc.a(_udivdi3.o)
                              ./zint-master/backend/pdf417.o (__udivdi3)
/opt/compiler/glibc-oabi-toolchain-arm-generic/lib/gcc/arm-unknown-linux-gnu/4.3.4/libgcc.a(_umoddi3.o)
                              ./zint-master/backend/pdf417.o (__umoddi3)
/opt/compiler/glibc-oabi-toolchain-arm-generic/lib/gcc/arm-unknown-linux-gnu/4.3.4/libgcc.a(_clz.o)
                              /opt/compiler/glibc-oabi-toolchain-arm-generic/lib/gcc/arm-unknown-linux-gnu/4.3.4/libgcc.a(_udivdi3.o) (__clz_tab)
/opt/compiler/glibc-oabi-toolchain-arm-generic/arm-unknown-linux-gnu//sys-root/usr/lib/libc_nonshared.a(elf-init.oS)
                              /opt/compiler/glibc-oabi-toolchain-arm-generic/arm-unknown-linux-gnu//sys-root/usr/lib/crt1.o (__libc_csu_fini)

Allocating common symbols
Common symbol       size              file

transactionstring   0xbb8             ./src1/cardinfo.o
db_values           0x4               ./src1/fp_test.o
err                 0x4               ./src1/video.o
ppp_request_ok      0x4               ./src1/cardinfo.o
pmode               0x14              ./src1/cardinfo.o
rootServiceName     0x28              ./src1/cardinfo.o
language            0x14              ./src1/fp_test.o
serviceCode         0x4               ./src1/cardinfo.o
serial_num          0x14              ./src1/cardinfo.o
service_code        0x4               ./src1/cardinfo.o
serial_number       0x4               ./src1/cardinfo.o
last_in_path        0x4               ./src1/cardinfo.o
increament_read     0x4               ./src1/cardinfo.o
collectStr          0x4               ./src1/sql_functions.o
current_synch_item  0x4               ./src1/cardinfo.o
parentId_key        0x4               ./src1/cardinfo.o
params_to_db        0x4               ./src1/cardinfo.o
bdep                0x64              ./src1/cardinfo.o
panel_two           0x4               ./src1/cardinfo.o
retval              0x4               ./src1/gprs_demo.o
printflag           0x4               ./src1/cardinfo.o
flag_new_line       0x4               ./src1/ContactSmartCard.o
z_number_recieved   0x4               ./src1/cardinfo.o
pin_no              0x4               ./src1/fp_test.o
bcode               0x32              ./src1/cardinfo.o
x_report_total_num_invalid_sbp
                    0x4               ./src1/cardinfo.o
personalstring      0x4               ./src1/fp_test.o
holder              0x4               ./src1/jsonread.o
serviceNameSelected
                    0x64              ./src1/cardinfo.o
parentType          0x4               ./src1/cardinfo.o
flag_online         0x4               ./src1/cardinfo.o
my_offline_params   0x4               ./src1/cardinfo.o
receipt_num         0x4               ./src1/gprs_demo.o
downloaded_topup_value
                    0x4               ./src1/fp_test.o
service_name_key    0x4               ./src1/cardinfo.o
flag_z_done         0x4               ./src1/cardinfo.o
ptime               0x4               ./src1/cardinfo.o
transaction         0x9c4             ./src1/cardinfo.o
logged_offline      0x4               ./src1/cardinfo.o
dbreadCounter_languages
                    0x4               ./src1/fp_test.o
marktId             0x4               ./src1/cardinfo.o
current             0x4               ./src1/keyboart.o
subservice_id       0x4               ./src1/cardinfo.o
res                 0x4               ./src1/gprs_demo.o
x_report_total_txt_number
                    0x4               ./src1/cardinfo.o
label_two           0x4               ./src1/cardinfo.o
voided_tx_time      0x32              ./src1/cardinfo.o
donnot_get_key      0x4               ./src1/ContactSmartCard.o
reading_params_for_z
                    0x4               ./src1/cardinfo.o
x_report_total_txt_amount
                    0x4               ./src1/cardinfo.o
currentPID          0x32              ./src1/cardinfo.o
dateofbirths        0x4               ./src1/fp_test.o
errmsg              0x100             ./src1/gprs_demo.o
label_one           0x4               ./src1/cardinfo.o
subservice_name1    0x4               ./src1/cardinfo.o
flag_getting_z      0x4               ./src1/cardinfo.o
transactionfile     0xbb8             ./src1/cardinfo.o
one_tx_for_z        0x4               ./src1/cardinfo.o
add_message_below_input
                    0x4               ./src1/cardinfo.o
print_complete      0x4               ./src1/cardinfo.o
transactin_val_name
                    0x4               ./src1/cardinfo.o
getting_offline_params
                    0x4               ./src1/cardinfo.o
x_report_total_txt_amount_offline
                    0x4               ./src1/cardinfo.o
app_number          0x28              ./src1/cardinfo.o
transactin_name     0x4               ./src1/cardinfo.o
db_collumn_names_languages
                    0x4               ./src1/fp_test.o
topup_download      0x4               ./src1/fp_test.o
transaction_count_to_confirm_z
                    0x4               ./src1/cardinfo.o
exit_loop           0x4               ./src1/fp_test.o
response            0x12c             ./src1/cardinfo.o
original_card_Number
                    0x28              ./src1/fp_test.o
recptnum            0x64              ./src1/cardinfo.o
transactionfile1    0xbb8             ./src1/cardinfo.o
dataout             0xbb8             ./src1/cardinfo.o
voidLimit           0x4               ./src1/cardinfo.o
serviceNameSelected1
                    0x64              ./src1/cardinfo.o
offset_forZ         0x4               ./src1/cardinfo.o
z_number            0xa               ./src1/cardinfo.o
db_collumn_names    0x4               ./src1/fp_test.o
params_key          0x4               ./src1/cardinfo.o
CurrentUser         0x334             ./src1/cardinfo.o
x_report_total_txt_number_voided
                    0x4               ./src1/cardinfo.o
fdesc               0x2c              ./src1/lcd.o
url                 0x64              ./src1/cardinfo.o
keep_db_after_z     0x4               ./src1/cardinfo.o
curl                0x4               ./src1/gprs_demo.o
myConfigurations    0x4               ./src1/cardinfo.o
key_board_title     0x4               ./src1/cardinfo.o
panel_one           0x4               ./src1/cardinfo.o
receiptlog          0x64              ./src1/cardinfo.o
myBenf              0x470             ./src1/cardinfo.o
parentType_key      0x4               ./src1/cardinfo.o
user_services_count
                    0x4               ./src1/cardinfo.o
x_report_total_txt_number_offline
                    0x4               ./src1/cardinfo.o
paramtype           0x4               ./src1/cardinfo.o
started_program     0x4               ./src1/fp_test.o
defined_x           0x4               ./src1/ContactSmartCard.o
tidx                0x4               ./src1/gprs_demo.o
z_date              0x32              ./src1/cardinfo.o
downloaded_topup    0x4               ./src1/fp_test.o
receipts_nos_posted
                    0xc8              ./src1/cardinfo.o
collums_in_rs       0x4               ./src1/fp_test.o
set_p               0x4               ./src1/cardinfo.o
tz                  0x8               ./src1/gprs_demo.o
service_level_key   0x4               ./src1/cardinfo.o
fp_counter          0x4               ./src1/fp_test.o
main_service_level  0x3               ./src1/cardinfo.o
x_report_total_val_invalid_sbp
                    0x4               ./src1/cardinfo.o
mac_address1        0x13              ./src1/cardinfo.o
z_rejected          0x4               ./src1/cardinfo.o
service_id_key      0x4               ./src1/cardinfo.o
card_name           0x64              ./src1/fp_test.o
myTransactions      0x9c              ./src1/cardinfo.o
fd                  0x4               ./src1/mutwol.o
login_successful    0x4               ./src1/cardinfo.o
x_report_total_val_sbp
                    0x4               ./src1/cardinfo.o
charges             0x4               ./src1/cardinfo.o
activity_in_progress
                    0x4               ./src1/fp_test.o
dbreadCounter       0x4               ./src1/fp_test.o
service_details_not_found
                    0x4               ./src1/cardinfo.o
charge              0x14              ./src1/cardinfo.o
parentId            0x4               ./src1/cardinfo.o
subservice_id_key   0x4               ./src1/cardinfo.o
x_report_total_num_sbp
                    0x4               ./src1/cardinfo.o
start               0x8               ./src1/gprs_demo.o
prev_user_txn       0x4               ./src1/cardinfo.o
subservice_name     0x4               ./src1/cardinfo.o
serviceName32       0x64              ./src1/cardinfo.o
payment_ref_code    0x1e              ./src1/cardinfo.o
x_report_total_val_invalid
                    0x4               ./src1/cardinfo.o
currentid           0x32              ./src1/cardinfo.o
chargesbp           0x28              ./src1/cardinfo.o
number_of_z_transactions
                    0x4               ./src1/cardinfo.o
tidx1               0x4               ./src1/gprs_demo.o
flag_getting_pwd2   0x4               ./src1/cardinfo.o
rootMenuIdent       0x4               ./src1/cardinfo.o
fag_start_ppp_session
                    0x4               ./src1/cardinfo.o
rootServiceId       0x28              ./src1/cardinfo.o
rcpt_date           0x32              ./src1/cardinfo.o
newRootServiceNameSelected
                    0x64              ./src1/cardinfo.o
update_smart_card   0x4               ./src1/fp_test.o
arabic              0x4               ./src1/fp_test.o
myCost              0x4               ./src1/cardinfo.o
current_synch_batch
                    0x4               ./src1/cardinfo.o
Linearfile_counter  0x4               ./src1/fp_test.o
diff                0x8               ./src1/gprs_demo.o
downloaded_topup_items
                    0x4               ./src1/fp_test.o
B                   0x2c              ./zint-master/backend/code.o
target_value        0x4               ./zint-master/backend/code.o
maxi_codeword       0x240             ./zint-master/backend/maxicode.o
bid                 0x32              ./src1/cardinfo.o
flag_stop_z         0x4               ./src1/cardinfo.o
listed_menu         0x3e8             ./src1/jsonread.o
db_values_languages
                    0x4               ./src1/fp_test.o
service_level       0x4               ./src1/cardinfo.o
flag_update_menu    0x4               ./src1/cardinfo.o
collums_in_rs_languages
                    0x4               ./src1/fp_test.o
flag_getting_pwd1   0x4               ./src1/cardinfo.o
parentid            0x4               ./src1/cardinfo.o
flag_offline_login  0x4               ./src1/cardinfo.o
mac_address         0x13              ./src1/cardinfo.o
end                 0x8               ./src1/gprs_demo.o
service_name        0x4               ./src1/cardinfo.o
sam_verification    0x4               ./src1/fp_test.o
serviceName         0x4               ./src1/cardinfo.o
transactin_val      0x4               ./src1/cardinfo.o
main_menu_count     0x4               ./src1/cardinfo.o
service_code_key    0x4               ./src1/cardinfo.o
liste               0x1f40            ./zint-master/backend/pdf417.o
cur                 0x8               ./src1/gprs_demo.o
time_for_receipt    0x1e              ./src1/cardinfo.o
jsonResponse        0x4               ./src1/cardinfo.o
flag_getting_pwd    0x4               ./src1/cardinfo.o
hsgfplib            0x4               ./src1/fp_test.o
in_purchase         0x4               ./src1/fp_test.o
x_report_total_num_invalid
                    0x4               ./src1/cardinfo.o
S                   0x2c              ./zint-master/backend/code.o
events              0x4               ./src1/ContactSmartCard.o
value               0x4               ./zint-master/backend/code.o
update_stopped      0x4               ./src1/cardinfo.o
s                   0x4               ./src1/cardinfo.o
arraylen            0x4               ./src1/cardinfo.o
x_report_total_txt_amount_voided
                    0x4               ./src1/cardinfo.o
card_Number         0x28              ./src1/fp_test.o
row_count           0x4               ./src1/sql_functions.o
please_print        0x4               ./src1/cardinfo.o
z_data              0x4               ./src1/cardinfo.o
bname               0x32              ./src1/cardinfo.o
params              0x4               ./src1/cardinfo.o
token               0x64              ./src1/cardinfo.o
online              0x4               ./src1/cardinfo.o
number_of_trans     0x4               ./src1/cardinfo.o
retailer_name       0x64              ./src1/fp_test.o
disable_timer       0x4               ./src1/cardinfo.o
flag_getting_sbp    0x4               ./src1/cardinfo.o
current_menu        0x1               ./src1/cardinfo.o
pattern             0x1e              ./zint-master/backend/code.o

Discarded input sections

 .note.GNU-stack
                0x00000000        0x0 /opt/compiler/glibc-oabi-toolchain-arm-generic/arm-unknown-linux-gnu//sys-root/usr/lib/crt1.o
 .note.GNU-stack
                0x00000000        0x0 /opt/compiler/glibc-oabi-toolchain-arm-generic/arm-unknown-linux-gnu//sys-root/usr/lib/crti.o
 .note.GNU-stack
                0x00000000        0x0 /opt/compiler/glibc-oabi-toolchain-arm-generic/lib/gcc/arm-unknown-linux-gnu/4.3.4/crtbegin.o
 .note.GNU-stack
                0x00000000        0x0 ./zint-master/frontend/getopt.o
 .note.GNU-stack
                0x00000000        0x0 ./zint-master/frontend/getopt1.o
 .note.GNU-stack
                0x00000000        0x0 ./zint-master/backend/2of5.o
 .note.GNU-stack
                0x00000000        0x0 ./zint-master/backend/auspost.o
 .note.GNU-stack
                0x00000000        0x0 ./zint-master/backend/aztec.o
 .note.GNU-stack
                0x00000000        0x0 ./zint-master/backend/code.o
 .note.GNU-stack
                0x00000000        0x0 ./zint-master/backend/code1.o
 .note.GNU-stack
                0x00000000        0x0 ./zint-master/backend/code128.o
 .note.GNU-stack
                0x00000000        0x0 ./zint-master/backend/code16k.o
 .note.GNU-stack
                0x00000000        0x0 ./zint-master/backend/code49.o
 .note.GNU-stack
                0x00000000        0x0 ./zint-master/backend/common.o
 .note.GNU-stack
                0x00000000        0x0 ./zint-master/backend/composite.o
 .note.GNU-stack
                0x00000000        0x0 ./zint-master/backend/dllversion.o
 .note.GNU-stack
                0x00000000        0x0 ./zint-master/backend/dmatrix.o
 .note.GNU-stack
                0x00000000        0x0 ./zint-master/backend/gridmtx.o
 .note.GNU-stack
                0x00000000        0x0 ./zint-master/backend/gs1.o
 .note.GNU-stack
                0x00000000        0x0 ./zint-master/backend/imail.o
 .note.GNU-stack
                0x00000000        0x0 ./zint-master/backend/large.o
 .note.GNU-stack
                0x00000000        0x0 ./zint-master/backend/library.o
 .note.GNU-stack
                0x00000000        0x0 ./zint-master/backend/maxicode.o
 .note.GNU-stack
                0x00000000        0x0 ./zint-master/backend/medical.o
 .note.GNU-stack
                0x00000000        0x0 ./zint-master/backend/pdf417.o
 .note.GNU-stack
                0x00000000        0x0 ./zint-master/backend/plessey.o
 .note.GNU-stack
                0x00000000        0x0 ./zint-master/backend/png.o
 .note.GNU-stack
                0x00000000        0x0 ./zint-master/backend/postal.o
 .note.GNU-stack
                0x00000000        0x0 ./zint-master/backend/ps.o
 .note.GNU-stack
                0x00000000        0x0 ./zint-master/backend/qr.o
 .note.GNU-stack
                0x00000000        0x0 ./zint-master/backend/reedsol.o
 .note.GNU-stack
                0x00000000        0x0 ./zint-master/backend/render.o
 .note.GNU-stack
                0x00000000        0x0 ./zint-master/backend/rss.o
 .note.GNU-stack
                0x00000000        0x0 ./zint-master/backend/svg.o
 .note.GNU-stack
                0x00000000        0x0 ./zint-master/backend/telepen.o
 .note.GNU-stack
                0x00000000        0x0 ./zint-master/backend/upcean.o
 .note.GNU-stack
                0x00000000        0x0 ./src1/ContactSmartCard.o
 .note.GNU-stack
                0x00000000        0x0 ./src1/JSON_checker.o
 .note.GNU-stack
                0x00000000        0x0 ./src1/Z_report.o
 .note.GNU-stack
                0x00000000        0x0 ./src1/cJSON.o
 .note.GNU-stack
                0x00000000        0x0 ./src1/cardinfo.o
 .note.GNU-stack
                0x00000000        0x0 ./src1/cl_smartcard_demo.o
 .note.GNU-stack
                0x00000000        0x0 ./src1/configurations.o
 .note.GNU-stack
                0x00000000        0x0 ./src1/desfire_test.o
 .note.GNU-stack
                0x00000000        0x0 ./src1/display.o
 .note.GNU-stack
                0x00000000        0x0 ./src1/fp_test.o
 .note.GNU-stack
                0x00000000        0x0 ./src1/gprs_demo.o
 .note.GNU-stack
                0x00000000        0x0 ./src1/jsonread.o
 .note.GNU-stack
                0x00000000        0x0 ./src1/jsontest.o
 .note.GNU-stack
                0x00000000        0x0 ./src1/keyboart.o
 .note.GNU-stack
                0x00000000        0x0 ./src1/lcd.o
 .note.GNU-stack
                0x00000000        0x0 ./src1/magneticstrip_demo.o
 .note.GNU-stack
                0x00000000        0x0 ./src1/main.o
 .note.GNU-stack
                0x00000000        0x0 ./src1/menu_back_forth.o
 .note.GNU-stack
                0x00000000        0x0 ./src1/menu_hash.o
 .note.GNU-stack
                0x00000000        0x0 ./src1/modem_demo.o
 .note.GNU-stack
                0x00000000        0x0 ./src1/mutwol.o
 .note.GNU-stack
                0x00000000        0x0 ./src1/network_f.o
 .note.GNU-stack
                0x00000000        0x0 ./src1/postslib_extern.o
 .note.GNU-stack
                0x00000000        0x0 ./src1/printer_demo.o
 .note.GNU-stack
                0x00000000        0x0 ./src1/receipt.o
 .note.GNU-stack
                0x00000000        0x0 ./src1/socket_demo.o
 .note.GNU-stack
                0x00000000        0x0 ./src1/sql_functions.o
 .note.GNU-stack
                0x00000000        0x0 ./src1/string_convert.o
 .note.GNU-stack
                0x00000000        0x0 ./src1/touch.o
 .note.GNU-stack
                0x00000000        0x0 ./src1/touch_demo.o
 .note.GNU-stack
                0x00000000        0x0 ./src1/transaction.o
 .note.GNU-stack
                0x00000000        0x0 ./src1/uart_demo.o
 .note.GNU-stack
                0x00000000        0x0 ./src1/video.o
 .note.GNU-stack
                0x00000000        0x0 ./src1/visualstring.o
 .note.GNU-stack
                0x00000000        0x0 ./jsonfiles/arraylist.o
 .note.GNU-stack
                0x00000000        0x0 ./jsonfiles/debug.o
 .note.GNU-stack
                0x00000000        0x0 ./jsonfiles/json_object.o
 .note.GNU-stack
                0x00000000        0x0 ./jsonfiles/json_object_iterator.o
 .note.GNU-stack
                0x00000000        0x0 ./jsonfiles/json_tokener.o
 .note.GNU-stack
                0x00000000        0x0 ./jsonfiles/json_util.o
 .note.GNU-stack
                0x00000000        0x0 ./jsonfiles/linkhash.o
 .note.GNU-stack
                0x00000000        0x0 ./jsonfiles/printbuf.o
 .note.GNU-stack
                0x00000000        0x0 /opt/compiler/glibc-oabi-toolchain-arm-generic/lib/gcc/arm-unknown-linux-gnu/4.3.4/libgcc.a(_udivsi3.o)
 .note.GNU-stack
                0x00000000        0x0 /opt/compiler/glibc-oabi-toolchain-arm-generic/lib/gcc/arm-unknown-linux-gnu/4.3.4/libgcc.a(_divsi3.o)
 .note.GNU-stack
                0x00000000        0x0 /opt/compiler/glibc-oabi-toolchain-arm-generic/lib/gcc/arm-unknown-linux-gnu/4.3.4/libgcc.a(_umodsi3.o)
 .note.GNU-stack
                0x00000000        0x0 /opt/compiler/glibc-oabi-toolchain-arm-generic/lib/gcc/arm-unknown-linux-gnu/4.3.4/libgcc.a(_modsi3.o)
 .note.GNU-stack
                0x00000000        0x0 /opt/compiler/glibc-oabi-toolchain-arm-generic/lib/gcc/arm-unknown-linux-gnu/4.3.4/libgcc.a(_dvmd_tls.o)
 .note.GNU-stack
                0x00000000        0x0 /opt/compiler/glibc-oabi-toolchain-arm-generic/lib/gcc/arm-unknown-linux-gnu/4.3.4/libgcc.a(_addsubdf3.o)
 .note.GNU-stack
                0x00000000        0x0 /opt/compiler/glibc-oabi-toolchain-arm-generic/lib/gcc/arm-unknown-linux-gnu/4.3.4/libgcc.a(_muldivdf3.o)
 .note.GNU-stack
                0x00000000        0x0 /opt/compiler/glibc-oabi-toolchain-arm-generic/lib/gcc/arm-unknown-linux-gnu/4.3.4/libgcc.a(_cmpdf2.o)
 .note.GNU-stack
                0x00000000        0x0 /opt/compiler/glibc-oabi-toolchain-arm-generic/lib/gcc/arm-unknown-linux-gnu/4.3.4/libgcc.a(_fixdfsi.o)
 .note.GNU-stack
                0x00000000        0x0 /opt/compiler/glibc-oabi-toolchain-arm-generic/lib/gcc/arm-unknown-linux-gnu/4.3.4/libgcc.a(_fixunsdfsi.o)
 .note.GNU-stack
                0x00000000        0x0 /opt/compiler/glibc-oabi-toolchain-arm-generic/lib/gcc/arm-unknown-linux-gnu/4.3.4/libgcc.a(_truncdfsf2.o)
 .note.GNU-stack
                0x00000000        0x0 /opt/compiler/glibc-oabi-toolchain-arm-generic/lib/gcc/arm-unknown-linux-gnu/4.3.4/libgcc.a(_addsubsf3.o)
 .note.GNU-stack
                0x00000000        0x0 /opt/compiler/glibc-oabi-toolchain-arm-generic/lib/gcc/arm-unknown-linux-gnu/4.3.4/libgcc.a(_muldivsf3.o)
 .note.GNU-stack
                0x00000000        0x0 /opt/compiler/glibc-oabi-toolchain-arm-generic/lib/gcc/arm-unknown-linux-gnu/4.3.4/libgcc.a(_cmpsf2.o)
 .note.GNU-stack
                0x00000000        0x0 /opt/compiler/glibc-oabi-toolchain-arm-generic/lib/gcc/arm-unknown-linux-gnu/4.3.4/libgcc.a(_fixsfsi.o)
 .note.GNU-stack
                0x00000000        0x0 /opt/compiler/glibc-oabi-toolchain-arm-generic/lib/gcc/arm-unknown-linux-gnu/4.3.4/libgcc.a(_fixunssfsi.o)
 .note.GNU-stack
                0x00000000        0x0 /opt/compiler/glibc-oabi-toolchain-arm-generic/lib/gcc/arm-unknown-linux-gnu/4.3.4/libgcc.a(_fixdfdi.o)
 .note.GNU-stack
                0x00000000        0x0 /opt/compiler/glibc-oabi-toolchain-arm-generic/lib/gcc/arm-unknown-linux-gnu/4.3.4/libgcc.a(_fixunsdfdi.o)
 .note.GNU-stack
                0x00000000        0x0 /opt/compiler/glibc-oabi-toolchain-arm-generic/lib/gcc/arm-unknown-linux-gnu/4.3.4/libgcc.a(_udivdi3.o)
 .note.GNU-stack
                0x00000000        0x0 /opt/compiler/glibc-oabi-toolchain-arm-generic/lib/gcc/arm-unknown-linux-gnu/4.3.4/libgcc.a(_umoddi3.o)
 .note.GNU-stack
                0x00000000        0x0 /opt/compiler/glibc-oabi-toolchain-arm-generic/lib/gcc/arm-unknown-linux-gnu/4.3.4/libgcc.a(_clz.o)
 .note.GNU-stack
                0x00000000        0x0 /opt/compiler/glibc-oabi-toolchain-arm-generic/arm-unknown-linux-gnu//sys-root/usr/lib/libc_nonshared.a(elf-init.oS)
 .note.GNU-stack
                0x00000000        0x0 /opt/compiler/glibc-oabi-toolchain-arm-generic/lib/gcc/arm-unknown-linux-gnu/4.3.4/crtend.o
 .note.GNU-stack
                0x00000000        0x0 /opt/compiler/glibc-oabi-toolchain-arm-generic/arm-unknown-linux-gnu//sys-root/usr/lib/crtn.o

Memory Configuration

Name             Origin             Length             Attributes
*default*        0x00000000         0xffffffff

Linker script and memory map

LOAD /opt/compiler/glibc-oabi-toolchain-arm-generic/arm-unknown-linux-gnu//sys-root/usr/lib/crt1.o
LOAD /opt/compiler/glibc-oabi-toolchain-arm-generic/arm-unknown-linux-gnu//sys-root/usr/lib/crti.o
LOAD /opt/compiler/glibc-oabi-toolchain-arm-generic/lib/gcc/arm-unknown-linux-gnu/4.3.4/crtbegin.o
LOAD ./zint-master/frontend/getopt.o
LOAD ./zint-master/frontend/getopt1.o
LOAD ./zint-master/backend/2of5.o
LOAD ./zint-master/backend/auspost.o
LOAD ./zint-master/backend/aztec.o
LOAD ./zint-master/backend/code.o
LOAD ./zint-master/backend/code1.o
LOAD ./zint-master/backend/code128.o
LOAD ./zint-master/backend/code16k.o
LOAD ./zint-master/backend/code49.o
LOAD ./zint-master/backend/common.o
LOAD ./zint-master/backend/composite.o
LOAD ./zint-master/backend/dllversion.o
LOAD ./zint-master/backend/dmatrix.o
LOAD ./zint-master/backend/gridmtx.o
LOAD ./zint-master/backend/gs1.o
LOAD ./zint-master/backend/imail.o
LOAD ./zint-master/backend/large.o
LOAD ./zint-master/backend/library.o
LOAD ./zint-master/backend/maxicode.o
LOAD ./zint-master/backend/medical.o
LOAD ./zint-master/backend/pdf417.o
LOAD ./zint-master/backend/plessey.o
LOAD ./zint-master/backend/png.o
LOAD ./zint-master/backend/postal.o
LOAD ./zint-master/backend/ps.o
LOAD ./zint-master/backend/qr.o
LOAD ./zint-master/backend/reedsol.o
LOAD ./zint-master/backend/render.o
LOAD ./zint-master/backend/rss.o
LOAD ./zint-master/backend/svg.o
LOAD ./zint-master/backend/telepen.o
LOAD ./zint-master/backend/upcean.o
LOAD ./src1/ContactSmartCard.o
LOAD ./src1/JSON_checker.o
LOAD ./src1/Z_report.o
LOAD ./src1/cJSON.o
LOAD ./src1/cardinfo.o
LOAD ./src1/cl_smartcard_demo.o
LOAD ./src1/configurations.o
LOAD ./src1/desfire_test.o
LOAD ./src1/display.o
LOAD ./src1/fp_test.o
LOAD ./src1/gprs_demo.o
LOAD ./src1/jsonread.o
LOAD ./src1/jsontest.o
LOAD ./src1/keyboart.o
LOAD ./src1/lcd.o
LOAD ./src1/magneticstrip_demo.o
LOAD ./src1/main.o
LOAD ./src1/menu_back_forth.o
LOAD ./src1/menu_hash.o
LOAD ./src1/modem_demo.o
LOAD ./src1/mutwol.o
LOAD ./src1/network_f.o
LOAD ./src1/postslib_extern.o
LOAD ./src1/printer_demo.o
LOAD ./src1/receipt.o
LOAD ./src1/socket_demo.o
LOAD ./src1/sql_functions.o
LOAD ./src1/string_convert.o
LOAD ./src1/touch.o
LOAD ./src1/touch_demo.o
LOAD ./src1/transaction.o
LOAD ./src1/uart_demo.o
LOAD ./src1/video.o
LOAD ./src1/visualstring.o
LOAD ./jsonfiles/arraylist.o
LOAD ./jsonfiles/debug.o
LOAD ./jsonfiles/json_object.o
LOAD ./jsonfiles/json_object_iterator.o
LOAD ./jsonfiles/json_tokener.o
LOAD ./jsonfiles/json_util.o
LOAD ./jsonfiles/linkhash.o
LOAD ./jsonfiles/printbuf.o
LOAD /home/pos/NEWPOS/sdk/lib/libz.so
LOAD /home/pos/NEWPOS/FDx_SDK_PRO_LINUX_ARM11_OABI_3_7_1_REV922/lib/arm11_oabi/libsgfpamx.so
LOAD /home/pos/NEWPOS/FDx_SDK_PRO_LINUX_ARM11_OABI_3_7_1_REV922/lib/arm11_oabi/libsgfdu04.so
LOAD /home/pos/NEWPOS/FDx_SDK_PRO_LINUX_ARM11_OABI_3_7_1_REV922/lib/arm11_oabi/libsgfplib.so
LOAD /home/pos/NEWPOS/sdk/lib/libusb.so
LOAD /home/pos/NEWPOS/sdk/lib/libusbpp.so
LOAD /home/pos/NEWPOS/sdk/lib/libsqlite3.so
LOAD /home/pos/NEWPOS/sdk/lib/libcurl.so
LOAD /home/pos/NEWPOS/sdk/lib/libts.so
LOAD /home/pos/NEWPOS/sdk/lib/libssl.so
LOAD /home/pos/NEWPOS/sdk/lib/libdirect.so
LOAD /home/pos/NEWPOS/sdk/lib/libdirectfb.so
LOAD /home/pos/NEWPOS/sdk/lib/libemv.so
LOAD /home/pos/NEWPOS/sdk/lib/libiccard.so
LOAD /home/pos/NEWPOS/sdk/lib/libnfc.so
LOAD /home/pos/NEWPOS/sdk/lib/libpng.so
LOAD /home/pos/NEWPOS/sdk/lib/libpos.so
LOAD /home/pos/NEWPOS/sdk/lib/libcrypto.so
LOAD /home/pos/NEWPOS/sdk/lib/libped.so
LOAD /home/pos/NEWPOS/sdk/lib/libfusion.so
LOAD /opt/compiler/glibc-oabi-toolchain-arm-generic/lib/gcc/arm-unknown-linux-gnu/4.3.4/libgcc.a
LOAD /opt/compiler/glibc-oabi-toolchain-arm-generic/lib/gcc/arm-unknown-linux-gnu/4.3.4/../../../../arm-unknown-linux-gnu/lib/libgcc_s.so
LOAD /opt/compiler/glibc-oabi-toolchain-arm-generic/arm-unknown-linux-gnu//sys-root/usr/lib/libc.so
START GROUP
LOAD /opt/compiler/glibc-oabi-toolchain-arm-generic/arm-unknown-linux-gnu//sys-root/lib/libc.so.6
LOAD /opt/compiler/glibc-oabi-toolchain-arm-generic/arm-unknown-linux-gnu//sys-root/usr/lib/libc_nonshared.a
LOAD /opt/compiler/glibc-oabi-toolchain-arm-generic/arm-unknown-linux-gnu//sys-root/lib/ld-linux.so.2
END GROUP
LOAD /opt/compiler/glibc-oabi-toolchain-arm-generic/lib/gcc/arm-unknown-linux-gnu/4.3.4/libgcc.a
LOAD /opt/compiler/glibc-oabi-toolchain-arm-generic/lib/gcc/arm-unknown-linux-gnu/4.3.4/../../../../arm-unknown-linux-gnu/lib/libgcc_s.so
LOAD /opt/compiler/glibc-oabi-toolchain-arm-generic/lib/gcc/arm-unknown-linux-gnu/4.3.4/crtend.o
LOAD /opt/compiler/glibc-oabi-toolchain-arm-generic/arm-unknown-linux-gnu//sys-root/usr/lib/crtn.o
                0x00008000                PROVIDE (__executable_start, 0x8000)
                0x00008154                . = (0x8000 + SIZEOF_HEADERS)

.interp         0x00008154       0x13
 *(.interp)
 .interp        0x00008154       0x13 /opt/compiler/glibc-oabi-toolchain-arm-generic/arm-unknown-linux-gnu//sys-root/usr/lib/crti.o

.note.ABI-tag   0x00008168       0x20
 .note.ABI-tag  0x00008168       0x20 /opt/compiler/glibc-oabi-toolchain-arm-generic/arm-unknown-linux-gnu//sys-root/usr/lib/crt1.o

.note.gnu.build-id
 *(.note.gnu.build-id)

.hash           0x00008188      0x6f4
 *(.hash)
 .hash          0x00008188      0x6f4 /opt/compiler/glibc-oabi-toolchain-arm-generic/arm-unknown-linux-gnu//sys-root/usr/lib/crti.o

.gnu.hash
 *(.gnu.hash)

.dynsym         0x0000887c      0xf60
 *(.dynsym)
 .dynsym        0x0000887c      0xf60 /opt/compiler/glibc-oabi-toolchain-arm-generic/arm-unknown-linux-gnu//sys-root/usr/lib/crti.o

.dynstr         0x000097dc      0xd33
 *(.dynstr)
 .dynstr        0x000097dc      0xd33 /opt/compiler/glibc-oabi-toolchain-arm-generic/arm-unknown-linux-gnu//sys-root/usr/lib/crti.o

.gnu.version    0x0000a510      0x1ec
 *(.gnu.version)
 .gnu.version   0x0000a510      0x1ec /opt/compiler/glibc-oabi-toolchain-arm-generic/arm-unknown-linux-gnu//sys-root/usr/lib/crti.o

.gnu.version_d  0x0000a6fc        0x0
 *(.gnu.version_d)
 .gnu.version_d
                0x00000000        0x0 /opt/compiler/glibc-oabi-toolchain-arm-generic/arm-unknown-linux-gnu//sys-root/usr/lib/crti.o

.gnu.version_r  0x0000a6fc       0xa0
 *(.gnu.version_r)
 .gnu.version_r
                0x0000a6fc       0xa0 /opt/compiler/glibc-oabi-toolchain-arm-generic/arm-unknown-linux-gnu//sys-root/usr/lib/crti.o

.rel.dyn        0x0000a79c       0x20
 *(.rel.init)
 *(.rel.text .rel.text.* .rel.gnu.linkonce.t.*)
 *(.rel.fini)
 *(.rel.rodata .rel.rodata.* .rel.gnu.linkonce.r.*)
 *(.rel.data.rel.ro* .rel.gnu.linkonce.d.rel.ro.*)
 *(.rel.data .rel.data.* .rel.gnu.linkonce.d.*)
 *(.rel.tdata .rel.tdata.* .rel.gnu.linkonce.td.*)
 *(.rel.tbss .rel.tbss.* .rel.gnu.linkonce.tb.*)
 *(.rel.ctors)
 *(.rel.dtors)
 *(.rel.got)
 .rel.got       0x0000a79c        0x8 /opt/compiler/glibc-oabi-toolchain-arm-generic/arm-unknown-linux-gnu//sys-root/usr/lib/crti.o
 *(.rel.bss .rel.bss.* .rel.gnu.linkonce.b.*)
 .rel.bss       0x0000a7a4       0x18 /opt/compiler/glibc-oabi-toolchain-arm-generic/arm-unknown-linux-gnu//sys-root/usr/lib/crti.o

.rela.dyn
 *(.rela.init)
 *(.rela.text .rela.text.* .rela.gnu.linkonce.t.*)
 *(.rela.fini)
 *(.rela.rodata .rela.rodata.* .rela.gnu.linkonce.r.*)
 *(.rela.data .rela.data.* .rela.gnu.linkonce.d.*)
 *(.rela.tdata .rela.tdata.* .rela.gnu.linkonce.td.*)
 *(.rela.tbss .rela.tbss.* .rela.gnu.linkonce.tb.*)
 *(.rela.ctors)
 *(.rela.dtors)
 *(.rela.got)
 *(.rela.bss .rela.bss.* .rela.gnu.linkonce.b.*)

.rel.plt        0x0000a7bc      0x730
 *(.rel.plt)
 .rel.plt       0x0000a7bc      0x730 /opt/compiler/glibc-oabi-toolchain-arm-generic/arm-unknown-linux-gnu//sys-root/usr/lib/crti.o

.rela.plt
 *(.rela.plt)

.init           0x0000aeec       0x14
 *(.init)
 .init          0x0000aeec        0x8 /opt/compiler/glibc-oabi-toolchain-arm-generic/arm-unknown-linux-gnu//sys-root/usr/lib/crti.o
                0x0000aeec                _init
 .init          0x0000aef4        0x4 /opt/compiler/glibc-oabi-toolchain-arm-generic/lib/gcc/arm-unknown-linux-gnu/4.3.4/crtbegin.o
 .init          0x0000aef8        0x4 /opt/compiler/glibc-oabi-toolchain-arm-generic/lib/gcc/arm-unknown-linux-gnu/4.3.4/crtend.o
 .init          0x0000aefc        0x4 /opt/compiler/glibc-oabi-toolchain-arm-generic/arm-unknown-linux-gnu//sys-root/usr/lib/crtn.o

.plt            0x0000af00      0xadc
 *(.plt)
 .plt           0x0000af00      0xadc /opt/compiler/glibc-oabi-toolchain-arm-generic/arm-unknown-linux-gnu//sys-root/usr/lib/crti.o
                0x0000af14                desfire_read_data
                0x0000af20                SGFPM_GetTemplateSize
                0x0000af2c                pclose@@GLIBC_2.1
                0x0000af38                open@@GLIBC_2.0
                0x0000af44                SSL_CTX_free
                0x0000af50                SGFPM_MatchTemplate
                0x0000af5c                curl_easy_perform
                0x0000af68                strcat@@GLIBC_2.0
                0x0000af74                charset_convert
                0x0000af80                fread@@GLIBC_2.0
                0x0000af8c                curl_easy_getinfo
                0x0000af98                fileno@@GLIBC_2.0
                0x0000afa4                SGFPM_GetImage
                0x0000afb0                SGFPM_GetMaxTemplateSize
                0x0000afbc                socket@@GLIBC_2.0
                0x0000afc8                sscanf@@GLIBC_2.0
                0x0000afd4                SGFPM_SetLedOn
                0x0000afe0                modem_open
                0x0000afec                ntohs@@GLIBC_2.0
                0x0000aff8                iccard_open_cardslot
                0x0000b004                SSL_CTX_check_private_key
                0x0000b010                curl_easy_init
                0x0000b01c                SGFPM_GetDeviceInfo
                0x0000b028                wnet_power_on
                0x0000b034                SGFPM_SetBrightness
                0x0000b040                emv_contactless_deactive_picc
                0x0000b04c                modem_wait_until_sent
                0x0000b058                select@@GLIBC_2.0
                0x0000b064                strdup@@GLIBC_2.0
                0x0000b070                strncasecmp@@GLIBC_2.0
                0x0000b07c                pthread_cancel@@GLIBC_2.0
                0x0000b088                sleep@@GLIBC_2.0
                0x0000b094                lseek@@GLIBC_2.0
                0x0000b0a0                connect@@GLIBC_2.0
                0x0000b0ac                SGFPM_OpenDevice
                0x0000b0b8                curl_slist_append
                0x0000b0c4                printer_get_param
                0x0000b0d0                calloc@@GLIBC_2.0
                0x0000b0dc                modem_dialing
                0x0000b0e8                ferror@@GLIBC_2.0
                0x0000b0f4                setlocale@@GLIBC_2.0
                0x0000b100                printer_close
                0x0000b10c                fgets@@GLIBC_2.0
                0x0000b118                png_create_info_struct@@PNG12_0
                0x0000b124                longjmp@@GLIBC_2.0
                0x0000b130                png_init_io@@PNG12_0
                0x0000b13c                netif_get_flags
                0x0000b148                sqlite3_close
                0x0000b154                fwrite@@GLIBC_2.0
                0x0000b160                memcpy@@GLIBC_2.0
                0x0000b16c                write@@GLIBC_2.0
                0x0000b178                malloc@@GLIBC_2.0
                0x0000b184                led_set_brightness
                0x0000b190                htons@@GLIBC_2.0
                0x0000b19c                strlen@@GLIBC_2.0
                0x0000b1a8                munmap@@GLIBC_2.0
                0x0000b1b4                usleep@@GLIBC_2.0
                0x0000b1c0                fprintf@@GLIBC_2.0
                0x0000b1cc                accept@@GLIBC_2.0
                0x0000b1d8                SSL_CTX_load_verify_locations
                0x0000b1e4                atof@@GLIBC_2.0
                0x0000b1f0                iccard_power_up
                0x0000b1fc                sprintf@@GLIBC_2.0
                0x0000b208                DirectFBCreate
                0x0000b214                iccard_check_card_in_slot
                0x0000b220                SSL_CTX_set_cipher_list
                0x0000b22c                modem_get_status
                0x0000b238                printer_get_status
                0x0000b244                netif_get_list
                0x0000b250                SGFPM_Create
                0x0000b25c                png_set_compression_level@@PNG12_0
                0x0000b268                strcmp@@GLIBC_2.0
                0x0000b274                emv_contactless_exchange_apdu
                0x0000b280                magstripe_open
                0x0000b28c                SSL_library_init
                0x0000b298                toupper@@GLIBC_2.0
                0x0000b2a4                time@@GLIBC_2.0
                0x0000b2b0                emv_contactless_active_picc
                0x0000b2bc                tolower@@GLIBC_2.0
                0x0000b2c8                __errno_location@@GLIBC_2.0
                0x0000b2d4                strncpy@@GLIBC_2.0
                0x0000b2e0                send@@GLIBC_2.0
                0x0000b2ec                fflush@@GLIBC_2.0
                0x0000b2f8                memcmp@@GLIBC_2.0
                0x0000b304                _setjmp@@GLIBC_2.0
                0x0000b310                png_set_packing@@PNG12_0
                0x0000b31c                SGFPM_GetMatchingScore
                0x0000b328                SGFPM_CreateTemplate
                0x0000b334                emv_contactless_obtain_status
                0x0000b340                desfire_select_application
                0x0000b34c                fseek@@GLIBC_2.0
                0x0000b358                getenv@@GLIBC_2.0
                0x0000b364                fputs@@GLIBC_2.0
                0x0000b370                SSL_read
                0x0000b37c                vsprintf@@GLIBC_2.0
                0x0000b388                DirectFBError
                0x0000b394                srand@@GLIBC_2.0
                0x0000b3a0                iccard_exchange_apdu
                0x0000b3ac                SSL_get_verify_result
                0x0000b3b8                strchr@@GLIBC_2.0
                0x0000b3c4                rename@@GLIBC_2.0
                0x0000b3d0                curl_easy_escape
                0x0000b3dc                curl_easy_cleanup
                0x0000b3e8                __libc_start_main@@GLIBC_2.0
                0x0000b3f4                sqlite3_errmsg
                0x0000b400                magstripe_close
                0x0000b40c                print_surface
                0x0000b418                getruntime
                0x0000b424                vsnprintf@@GLIBC_2.0
                0x0000b430                magstripe_read_timeout
                0x0000b43c                printer_open
                0x0000b448                floor@@GLIBC_2.0
                0x0000b454                DirectFBErrorFatal
                0x0000b460                SSL_accept
                0x0000b46c                TLSv1_server_method
                0x0000b478                signal@@GLIBC_2.0
                0x0000b484                ts_open
                0x0000b490                gettimeofday@@GLIBC_2.0
                0x0000b49c                modem_write
                0x0000b4a8                desfire_get_application_ids
                0x0000b4b4                SSL_CTX_set_verify_depth
                0x0000b4c0                DirectFBErrorString
                0x0000b4cc                __ctype_b_loc@@GLIBC_2.3
                0x0000b4d8                rand@@GLIBC_2.0
                0x0000b4e4                desfire_create_application
                0x0000b4f0                sqrt@@GLIBC_2.0
                0x0000b4fc                curl_free
                0x0000b508                png_write_end@@PNG12_0
                0x0000b514                sqlite3_free
                0x0000b520                inet_addr@@GLIBC_2.0
                0x0000b52c                free@@GLIBC_2.0
                0x0000b538                inet_pton@@GLIBC_2.0
                0x0000b544                SSL_CTX_set_verify
                0x0000b550                desfire_get_card_uid
                0x0000b55c                strncmp@@GLIBC_2.0
                0x0000b568                qsort@@GLIBC_2.0
                0x0000b574                sqlite3_exec
                0x0000b580                desfire_poll
                0x0000b58c                ERR_print_errors_fp
                0x0000b598                popen@@GLIBC_2.1
                0x0000b5a4                png_destroy_write_struct@@PNG12_0
                0x0000b5b0                asctime@@GLIBC_2.0
                0x0000b5bc                sys_get_status_bar_height
                0x0000b5c8                ts_config
                0x0000b5d4                png_write_row@@PNG12_0
                0x0000b5e0                ppp_open
                0x0000b5ec                SSL_CTX_new
                0x0000b5f8                curl_easy_setopt
                0x0000b604                desfire_create_std_datafile
                0x0000b610                exit@@GLIBC_2.0
                0x0000b61c                wnet_set_attached
                0x0000b628                printf@@GLIBC_2.0
                0x0000b634                strerror@@GLIBC_2.0
                0x0000b640                vprintf@@GLIBC_2.0
                0x0000b64c                curl_global_init
                0x0000b658                ppp_close
                0x0000b664                TLSv1_client_method
                0x0000b670                feof@@GLIBC_2.0
                0x0000b67c                strtok@@GLIBC_2.0
                0x0000b688                puts@@GLIBC_2.0
                0x0000b694                wnet_init
                0x0000b6a0                wnet_power_down
                0x0000b6ac                atoi@@GLIBC_2.0
                0x0000b6b8                netif_get_ipaddr
                0x0000b6c4                vsyslog@@GLIBC_2.0
                0x0000b6d0                png_create_write_struct@@PNG12_0
                0x0000b6dc                SSL_CTX_use_certificate_file
                0x0000b6e8                modem_hangup
                0x0000b6f4                difftime@@GLIBC_2.0
                0x0000b700                strtoul@@GLIBC_2.0
                0x0000b70c                SGFPM_Terminate
                0x0000b718                memset@@GLIBC_2.0
                0x0000b724                putchar@@GLIBC_2.0
                0x0000b730                pthread_self@@GLIBC_2.0
                0x0000b73c                desfire_write_data
                0x0000b748                ts_close
                0x0000b754                strftime@@GLIBC_2.0
                0x0000b760                recv@@GLIBC_2.0
                0x0000b76c                remove@@GLIBC_2.0
                0x0000b778                SSL_connect
                0x0000b784                modem_close
                0x0000b790                fcntl@@GLIBC_2.0
                0x0000b79c                listen@@GLIBC_2.0
                0x0000b7a8                mif_close
                0x0000b7b4                snprintf@@GLIBC_2.0
                0x0000b7c0                SSL_load_error_strings
                0x0000b7cc                png_get_error_ptr@@PNG12_0
                0x0000b7d8                curl_global_cleanup
                0x0000b7e4                close@@GLIBC_2.0
                0x0000b7f0                mif_open
                0x0000b7fc                read@@GLIBC_2.0
                0x0000b808                tty_property_config
                0x0000b814                sqlite3_open
                0x0000b820                abort@@GLIBC_2.0
                0x0000b82c                SSL_free
                0x0000b838                DirectFBInit
                0x0000b844                vfprintf@@GLIBC_2.0
                0x0000b850                png_write_info@@PNG12_0
                0x0000b85c                SSL_write
                0x0000b868                iccard_power_down
                0x0000b874                pow@@GLIBC_2.0
                0x0000b880                SSL_set_fd
                0x0000b88c                fclose@@GLIBC_2.1
                0x0000b898                memmove@@GLIBC_2.0
                0x0000b8a4                SGFPM_CloseDevice
                0x0000b8b0                png_set_IHDR@@PNG12_0
                0x0000b8bc                SSL_CTX_use_PrivateKey_file
                0x0000b8c8                ctime@@GLIBC_2.0
                0x0000b8d4                desfire_authenticate
                0x0000b8e0                gethostbyname@@GLIBC_2.0
                0x0000b8ec                ioctl@@GLIBC_2.0
                0x0000b8f8                SGFPM_GetImageQuality
                0x0000b904                inet_ntoa@@GLIBC_2.0
                0x0000b910                ppp_check
                0x0000b91c                system@@GLIBC_2.0
                0x0000b928                htonl@@GLIBC_2.0
                0x0000b940                strcpy@@GLIBC_2.0
                0x0000b94c                emv_contactless_get_lasterror
                0x0000b958                SGFPM_Init
                0x0000b964                mmap@@GLIBC_2.0
                0x0000b970                iccard_close_cardslot
                0x0000b97c                localtime@@GLIBC_2.0
                0x0000b988                SSL_new
                0x0000b994                ts_read
                0x0000b9a0                sys_get_sn
                0x0000b9ac                realloc@@GLIBC_2.0
                0x0000b9b8                fopen@@GLIBC_2.1
                0x0000b9c4                bind@@GLIBC_2.0
                0x0000b9d0                ftell@@GLIBC_2.0

.text           0x0000b9dc    0xb07b0
 *(.text .stub .text.* .gnu.linkonce.t.*)
 .text          0x0000b9dc       0x38 /opt/compiler/glibc-oabi-toolchain-arm-generic/arm-unknown-linux-gnu//sys-root/usr/lib/crt1.o
                0x0000b9dc                _start
 .text          0x0000ba14       0x24 /opt/compiler/glibc-oabi-toolchain-arm-generic/arm-unknown-linux-gnu//sys-root/usr/lib/crti.o
 .text          0x0000ba38       0xb4 /opt/compiler/glibc-oabi-toolchain-arm-generic/lib/gcc/arm-unknown-linux-gnu/4.3.4/crtbegin.o
 .text          0x0000baec        0x0 ./zint-master/frontend/getopt.o
 .text          0x0000baec        0x0 ./zint-master/frontend/getopt1.o
 .text          0x0000baec     0x1194 ./zint-master/backend/2of5.o
                0x0000c9f8                dpident
                0x0000baec                matrix_two_of_five
                0x0000c0bc                interleaved_two_of_five
                0x0000bf48                logic_two_of_five
                0x0000bdd4                iata_two_of_five
                0x0000bc60                industrial_two_of_five
                0x0000c768                dpleit
                0x0000c4e8                itf14
 .text          0x0000cc80      0xc60 ./zint-master/backend/auspost.o
                0x0000d130                australia_post
                0x0000cc80                rs_error
 .text          0x0000d8e0     0x7df0 ./zint-master/backend/aztec.o
                0x0000d990                insert
                0x00014cac                aztec_runes
                0x0000da28                aztec_text_process
                0x00010328                aztec
                0x0000d8e0                mapshorten
 .text          0x000156d0     0x1a58 ./zint-master/backend/code.o
                0x00016d14                channel_code
                0x00016474                c93
                0x0001627c                ec39
                0x000156d0                code_11
                0x00016b24                NextB
                0x00015b00                c39
                0x00016c68                NextS
                0x00016a50                CheckCharacter
                0x00015fe0                pharmazentral
 .text          0x00017128     0x91b4 ./zint-master/backend/code1.o
                0x000172e4                vert
                0x00017628                c1_look_ahead_test
                0x0001bccc                code_one
                0x0001bbf0                block_copy
                0x000174e0                dq4bi
                0x000171d8                central_finder
                0x00017128                horiz
                0x0001892c                c1_encode
                0x000173a0                spigot
                0x00017420                isedi
 .text          0x000202dc     0x3d1c ./zint-master/backend/code128.o
                0x000202dc                parunmodd
                0x0002268c                ean_128
                0x00023dc4                ean_14
                0x00020c7c                code_128
                0x00020bbc                c128_set_c
                0x00023b70                nve_18
                0x000203b8                grwp
                0x00020500                dxsmooth
                0x00020ae8                c128_set_b
                0x0002097c                c128_set_a
 .text          0x00023ff8     0x2778 ./zint-master/backend/code16k.o
                0x00024744                c16k_set_c
                0x00023ff8                grwp16
                0x000246b0                c16k_set_b
                0x000247e8                code16k
                0x000245bc                c16k_set_a
                0x00024140                dxsmooth16
 .text          0x00026770     0x1c48 ./zint-master/backend/code49.o
                0x00026770                code_49
 .text          0x000283b8     0x12ac ./zint-master/backend/common.o
                0x00028994                module_is_set
                0x00028630                itoc
                0x00028528                uconcat
                0x00028a24                set_module
                0x000286a0                to_upper
                0x00028b00                unset_module
                0x000288e4                lookup
                0x00028be4                expand
                0x00028f60                roundup
                0x00028498                concat
                0x00028840                posn
                0x00028ff8                istwodigits
                0x00028d70                is_stackable
                0x000285b4                ctoi
                0x00029334                utf8toutf16
                0x00029164                latin1_process
                0x00028e8c                is_extendable
                0x000283b8                ustrlen
                0x0002874c                is_sane
                0x0002909c                froundup
                0x0002840c                ustrcpy
 .text          0x00029664     0x85e0 ./zint-master/backend/composite.o
                0x000296b0                getBit
                0x00030f00                composite
                0x0002994c                encode928
                0x00030cac                add_leading_zeroes
                0x00029664                _min
                0x0002b268                cc_b
                0x0002c414                cc_c
                0x00029718                init928
                0x00029c88                cc_a
                0x0002d3b4                cc_binary_string
 .text          0x00031c44        0x0 ./zint-master/backend/dllversion.o
 .text          0x00031c44     0x4170 ./zint-master/backend/dmatrix.o
                0x00032d8c                insert_value
                0x00032e14                look_ahead_test
                0x000355b0                data_matrix_200
                0x00032c1c                isx12
                0x00032cf4                dminsert
                0x0003544c                add_tail
                0x000336c4                dm200encode
                0x00035d34                dmatrix
 .text          0x00035db4     0x4f64 ./zint-master/backend/gridmtx.o
                0x0003889c                gm_add_ecc
                0x000367b4                add_byte_count
                0x00035db4                number_lat
                0x00036a38                add_shift_char
                0x00036be8                gm_encode
                0x00036040                seek_forward
                0x00039768                place_layer_id
                0x00039d30                grid_matrix
                0x00039640                place_data_in_grid
                0x000392a0                place_macromodule
 .text          0x0003ad18     0x186c ./zint-master/backend/gs1.o
                0x0003af28                gs1_verify
                0x0003ad18                itostr
                0x0003c370                ugs1_verify
 .text          0x0003c584     0x2a10 ./zint-master/backend/imail.o
                0x0003cbe0                imail
                0x0003c584                USPS_MSB_Math_CRC11GenerateFrameCheckSequence
                0x0003c7f8                breakup
 .text          0x0003ef94      0xdc8 ./zint-master/backend/large.o
                0x0003faf8                hex_dump
                0x0003f498                binary_subtract
                0x0003f6f8                islarger
                0x0003f5c8                shiftdown
                0x0003f66c                shiftup
                0x0003ef94                binary_add
                0x0003f824                binary_load
 .text          0x0003fd5c     0x3070 ./zint-master/backend/library.o
                0x00040834                gs1_compliant
                0x0004023c                dump_plot
                0x0004090c                ZBarcode_ValidID
                0x00042998                ZBarcode_Encode_and_Buffer
                0x00042a1c                ZBarcode_Encode_File
                0x00042914                ZBarcode_Encode_and_Print
                0x000401b8                error_tag
                0x00042d90                ZBarcode_Render
                0x00042520                ZBarcode_Print
                0x00041ab8                ZBarcode_Encode
                0x00042ca8                ZBarcode_Encode_File_and_Print
                0x0003fd5c                ZBarcode_Create
                0x0004009c                ZBarcode_Delete
                0x000403e8                hibc
                0x0003ff74                ZBarcode_Clear
                0x00040b8c                extended_charset
                0x00040c40                reduced_charset
                0x00042d1c                ZBarcode_Encode_File_and_Buffer
                0x0004283c                ZBarcode_Buffer
 .text          0x00042dcc     0x2e54 ./zint-master/backend/maxicode.o
                0x000431a8                maxi_bump
                0x00042edc                maxi_do_secondary_chk_odd
                0x0004324c                maxi_text_process
                0x00044e20                maxi_do_primary_2
                0x00044fdc                maxi_do_primary_3
                0x0004530c                maxicode
                0x00042dcc                maxi_do_primary_check
                0x00043044                maxi_do_secondary_chk_even
 .text          0x00045c20      0xdf4 ./zint-master/backend/medical.o
                0x000463e0                codabar
                0x00045c20                pharma_one
                0x000461a0                pharma_two
                0x00046648                code32
                0x00045f7c                pharma_two_calc
 .text          0x00046a14     0x50f4 ./zint-master/backend/pdf417.o
                0x00047f14                byteprocess
                0x0004a03c                micro_pdf417
                0x00046c34                pdfsmooth
                0x00046a14                quelmode
                0x00049e40                pdf417enc
                0x00048348                numbprocess
                0x00048814                pdf417
                0x00046aec                regroupe
                0x00047124                textprocess
 .text          0x0004bb08     0x1498 ./zint-master/backend/plessey.o
                0x0004bee8                msi_plessey
                0x0004ccc8                msi_plessey_mod1110
                0x0004c3ac                msi_plessey_mod1010
                0x0004ce30                msi_handle
                0x0004c004                msi_plessey_mod10
                0x0004bb08                plessey
                0x0004c9e8                msi_plessey_mod11
 .text          0x0004cfa0     0x49a0 ./zint-master/backend/png.o
                0x0004ee18                draw_bullseye
                0x0004ec84                bullseye_pixel
                0x0004f1cc                draw_string
                0x0004eee0                draw_hexagon
                0x0004e934                png_to_file
                0x0004f2a4                maxi_png_plot
                0x0004ebbc                draw_bar
                0x0004dd70                bmp_pixel_plot
                0x000518d4                bmp_handle
                0x0004f7c0                png_plot
                0x0004f650                to_latin1
                0x00051868                png_handle
                0x0004efb0                draw_letter
                0x0004d04c                png_pixel_plot
 .text          0x00051940     0x1eac ./zint-master/backend/postal.o
                0x00053004                japan_post
                0x00052ec8                flattermarken
                0x000521d8                fim
                0x00052638                royal_plot
                0x00052b90                daft_code
                0x00051f70                korea_post
                0x00051940                postnet
                0x00051c58                planet
                0x00051b04                post_plot
                0x000528bc                kix_code
                0x00052404                rm4scc
                0x00051e1c                planet_plot
 .text          0x000537ec     0x6664 ./zint-master/backend/ps.o
                0x000537ec                ps_plot
 .text          0x00059e50     0xa75c ./zint-master/backend/qr.o
                0x0005dbdc                apply_bitmask
                0x000607c8                microqr_expand_binary
                0x000604dc                get_bitlength
                0x0005c9e8                cwbit
                0x0005edac                qr_code
                0x00061850                micro_qr_m3
                0x00062d04                micro_apply_bitmask
                0x00059f30                define_mode
                0x0005cc3c                populate_grid
                0x00062068                micro_qr_m4
                0x0005cec4                evaluate
                0x00062b88                micro_evaluate
                0x0005c0ac                place_finder
                0x00060b54                micro_qr_m1
                0x0005a5a8                qr_binary
                0x00063544                microqr
                0x0005e690                add_format_info
                0x0005b7d0                add_ecc
                0x00061250                micro_qr_m2
                0x00062698                micro_setup_grid
                0x00062908                micro_populate_grid
                0x0005c33c                setup_grid
                0x00059e50                in_alpha
                0x0005c1e8                place_align
                0x0005fc3c                micro_qr_intermediate
                0x0005a2f4                estimate_binary_length
                0x0005ea4c                add_version_info
 .text          0x000645ac      0x97c ./zint-master/backend/reedsol.o
                0x00064ed0                rs_free
                0x00064c24                rs_encode_long
                0x000645ac                rs_init_gf
                0x00064748                rs_init_code
                0x0006497c                rs_encode
 .text          0x00064f28     0x3bfc ./zint-master/backend/render.o
                0x000687dc                render_plot_add_line
                0x0006899c                render_plot_add_hexagon
                0x000688cc                render_plot_add_ring
                0x00068850                render_plot_create_ring
                0x00064f28                render_plot
                0x00068a10                render_plot_add_string
                0x00068760                render_plot_create_line
                0x00068940                render_plot_create_hexagon
 .text          0x00068b24     0xaed4 ./zint-master/backend/rss.o
                0x0006db64                rss_binary_string
                0x0006d124                general_rules
                0x0006b830                rsslimited
                0x00068f0c                rss14
                0x00068b24                combins
                0x00070f64                rssexpanded
                0x00068c44                getRSSwidths
 .text          0x000739f8     0x59a8 ./zint-master/backend/svg.o
                0x000739f8                svg_plot
 .text          0x000793a0      0x648 ./zint-master/backend/telepen.o
                0x00079614                telepen_num
                0x000793a0                telepen
 .text          0x000799e8     0x29b8 ./zint-master/backend/upcean.o
                0x0007a504                ean_check
                0x00079b10                upca_draw
                0x0007a82c                ean8
                0x000799e8                upc_check
                0x0007b384                eanx
                0x0007a1f8                add_on
                0x0007af20                ean_leading_zeroes
                0x0007a9c0                isbn_check
                0x00079ca8                upce
                0x0007a634                ean13
                0x0007a8b4                isbn13_check
                0x0007aac4                isbn
                0x00079be4                upca
 .text          0x0007c3a0      0x46c ./src1/ContactSmartCard.o
                0x0007c3a0                ContactSmartCard_Demo
 .text          0x0007c80c      0x614 ./src1/JSON_checker.o
                0x0007c954                new_JSON_checker
                0x0007cdb0                JSON_checker_done
                0x0007c9d8                JSON_checker_char
 .text          0x0007ce20        0x0 ./src1/Z_report.o
 .text          0x0007ce20     0x42fc ./src1/cJSON.o
                0x0008039c                cJSON_DetachItemFromObject
                0x0007ff28                cJSON_GetArrayItem
                0x00080e08                cJSON_Minify
                0x0007d0e8                cJSON_Delete
                0x00080864                cJSON_CreateObject
                0x00080b34                cJSON_CreateStringArray
                0x0007ff90                cJSON_GetObjectItem
                0x0007ce20                cJSON_GetErrorPtr
                0x000806fc                cJSON_CreateBool
                0x00080254                cJSON_DetachItemFromArray
                0x00080a64                cJSON_CreateDoubleArray
                0x00080214                cJSON_AddItemReferenceToObject
                0x000808a4                cJSON_CreateIntArray
                0x0007e898                cJSON_ParseWithOpts
                0x00080364                cJSON_DeleteItemFromArray
                0x00080c00                cJSON_Duplicate
                0x00080750                cJSON_CreateNumber
                0x0008067c                cJSON_CreateTrue
                0x0007e9dc                cJSON_Print
                0x00080984                cJSON_CreateFloatArray
                0x0008063c                cJSON_CreateNull
                0x000807c8                cJSON_CreateString
                0x00080484                cJSON_ReplaceItemInArray
                0x0008044c                cJSON_DeleteItemFromObject
                0x0007e9ac                cJSON_Parse
                0x000806bc                cJSON_CreateFalse
                0x000800d4                cJSON_AddItemToArray
                0x0008015c                cJSON_AddItemToObject
                0x0007fec8                cJSON_GetArraySize
                0x000801dc                cJSON_AddItemReferenceToArray
                0x0007ea0c                cJSON_PrintUnformatted
                0x00080824                cJSON_CreateArray
                0x0007cfd4                cJSON_InitHooks
                0x0008058c                cJSON_ReplaceItemInObject
 .text          0x0008111c      0xa30 ./src1/cardinfo.o
                0x0008111c                personalizecard
 .text          0x00081b4c      0x8b8 ./src1/cl_smartcard_demo.o
                0x00081b4c                ContactlessSmartCard_Demo
                0x00081fa4                identifyCard_Demo
 .text          0x00082404        0x0 ./src1/configurations.o
 .text          0x00082404     0x19cc ./src1/desfire_test.o
                0x00082404                testnfc
                0x00083350                openCardReader
                0x000833c8                initializeCardSectors
                0x00082ce0                peformCardOperations
                0x00083ac8                readDataFromMifareCard
                0x000833d8                createApplicationAndFileAndWriteData
 .text          0x00083dd0     0x1830 ./src1/display.o
                0x00083dd0                Display_login_screen
                0x00084930                display_request_for_srvce_details
 .text          0x00085600     0x1200 ./src1/fp_test.o
                0x00085600                fplib_test
 .text          0x00086800     0x1ab4 ./src1/gprs_demo.o
                0x00086eac                threader1
                0x00087844                start_ppp_sess
                0x00086fd0                start_ppp_session
                0x000875e0                start_ppp_session1
                0x00087a68                power_on_modem_device
                0x00087df0                gprs_demo
                0x000869b8                check_remote_service_size
                0x00086cd0                ftp_service
 .text          0x000882b4     0x3a98 ./src1/jsonread.o
                0x00088a80                remove_quotes
                0x0008bc50                jcheck
                0x0008b904                json_parse_array_start
                0x0008ba5c                json_parse
                0x000882b4                print_json_value
                0x00088348                json_online
                0x0008b7dc                json_parse_array
                0x00088bc0                Start_online_display
                0x00088b1c                hash_fnc
                0x0008a628                read_online_jason_file
 .text          0x0008bd4c      0x198 ./src1/jsontest.o
                0x0008bd4c                jsonOperations
 .text          0x0008bee4     0x4450 ./src1/keyboart.o
                0x0008bee4                transaction1
                0x0008d370                increament_pointersize_and_copy
                0x0008fd6c                translate_long_strings_and_print
                0x0008d40c                kb_getString
                0x0008d294                MapChar2Index
                0x000902b4                message_display_getdate
                0x0008d0a4                key_board_demo1
                0x0008e520                kb_getStringtwo
                0x0008e39c                organise_screen_on_input_one
                0x0008c218                set_innitial_configuration
                0x0008cfbc                buy_goods
                0x0008ce44                my_account
                0x0008fb80                message_display_function
                0x0008fd44                message_display_function_extended
                0x0008d19c                key_board_demo
                0x0008c8fc                register_ben
                0x0008ffa4                organise_screen_on_input_login
 .text          0x00090334     0x2910 ./src1/lcd.o
                0x00092048                screen_header
                0x00090b44                lcd_set_font_color
                0x0009140c                fill_triangle
                0x00091ea8                get_y_position
                0x00091b90                lcd_show_picture
                0x000919a4                lcd_clear_background_picture
                0x000925c8                kb_hit
                0x00090818                changFont
                0x00091d50                lcd_draw_point
                0x000908c8                lcd_uninit
                0x00091b2c                lcd_restore
                0x00090334                lcd_init
                0x000912e4                lcd_draw_rectangle
                0x00090b1c                lcd_set_bk_color
                0x00091e80                define_y_position
                0x00091228                lcd_printf_ex
                0x00091e44                lcd_flip
                0x00091f78                set_font
                0x00092774                display_message
                0x00091688                lcd_set_background_picture
                0x00091ec8                screen_title
                0x00091a40                lcd_save
                0x00092108                lcd_menu
                0x00090b6c                lcd_clean
                0x00091508                lcd_draw_rectangle_colored
                0x0009279c                showBootHistory
                0x00090c0c                lcd_printf
                0x000926bc                kb_getkey
 .text          0x00092c44      0x2dc ./src1/magneticstrip_demo.o
                0x00092c44                magneticstrip_demo
 .text          0x00092f20      0x16c ./src1/main.o
                0x00092f60                main
                0x00092f20                design_url
                0x00092f40                get_offline_menu
 .text          0x0009308c     0x27a8 ./src1/menu_back_forth.o
                0x00094710                find_path_item
                0x0009308c                add_path
                0x000951a0                delete_all_in_path
                0x0009552c                travese_path
                0x00094f04                delete_path
                0x000954bc                print_menu_items_in_path
 .text          0x00095834     0x6670 ./src1/menu_hash.o
                0x00096ef4                add_code
                0x0009be10                one_level_up
                0x0009afb8                sort_by_id
                0x0009aaac                name_sort
                0x000985b4                add_has_next
                0x00099c78                find_menu
                0x0009a730                delete_all
                0x0009aaf0                id_sort
                0x00095834                add_menu
                0x0009b44c                menu_array
                0x0009a494                delete_menu
                0x0009bd50                one_level_deep
                0x0009aa4c                print_menus
                0x0009ab24                sort_by_name
 .text          0x0009bea4      0x228 ./src1/modem_demo.o
                0x0009bea4                modem_demo
 .text          0x0009c0cc      0x68c ./src1/mutwol.o
                0x0009c0cc                cardlogic
                0x0009c36c                enrollbeneficiary
 .text          0x0009c758     0x30bc ./src1/network_f.o
                0x0009ee1c                isValidAmmount
                0x0009f6e4                trim
                0x0009ccac                getRandoms
                0x0009cd20                getdate_mine_for_z
                0x0009efd0                set_innitial_configuratio
                0x0009d8d8                change_configuration
                0x0009ee54                is_valid_int
                0x0009c840                getdate_mine
                0x0009cfcc                read_config
                0x0009ef24                is_valid_positive_int
                0x0009edd8                isValidIpAddress
                0x0009c758                funt_get_mac_address
                0x0009d750                save_configarations
                0x0009ca28                getdate_mine_for_transaction
                0x0009cf2c                get_current_time
                0x0009e570                change_password
 .text          0x0009f814     0x16fc ./src1/postslib_extern.o
                0x0009f8fc                portClose
                0x000a0b54                PedSignature
                0x0009fb40                sysGetTimerCount
                0x0009fb0c                fileRename
                0x0009f944                fileSeek
                0x000a0998                AfterSignReply
                0x0009f91c                portOpen
                0x000a062c                InputSign
                0x0009f980                fileClose
                0x0009f884                portCheckRecvBuf
                0x000a0ca4                SetElecSignTimeOut
                0x0009f9a8                fileWrite
                0x0009f8a4                portSends
                0x000a03c4                ShakeHands
                0x0009f814                fileOpen
                0x0009f8d0                portRecv
 .text          0x000a0f10     0x9228 ./src1/printer_demo.o
                0x000a85a0                print_z_report
                0x000a3ddc                Printer_Demo
                0x000a0f10                replacer
                0x000a9d44                display_image
                0x000a83fc                get_printstatus
                0x000a248c                SBP_printer
                0x000a9e88                load_image_for_screen
                0x000a5c08                print_x_z_report
                0x000a7c20                PrintHeader
                0x000a1180                Printer_Void_receipt
 .text          0x000aa138      0x850 ./src1/receipt.o
                0x000aa440                get_voided_number
                0x000aa138                get_receipt_number
                0x000aa708                set_get_z_number
                0x000aa5c4                revert_receipt_number
 .text          0x000aa988     0x1814 ./src1/socket_demo.o
                0x000abad8                tcp_server
                0x000aa988                socket_server_demo
                0x000abea0                tcp_close
                0x000abd84                tcp_connect
                0x000aba9c                tcp_init
                0x000ab5b8                ssl_client_demo
                0x000aaf10                ssl_server_demo
                0x000aad44                socket_client_demo
                0x000abecc                tcp_read
                0x000ac05c                tcp_write
                0x000abbfc                tcp_accept
 .text          0x000ac19c     0x3d14 ./src1/sql_functions.o
                0x000aeea0                create_all_table
                0x000afaf4                reprint_receipt
                0x000aecec                read_database_receiptlogs
                0x000ae6c0                sqlite_database_create_table
                0x000af04c                x_report_old
                0x000ae870                sqlite_database_insert_into_table
                0x000aeab4                read_database
                0x000aee2c                clear_arrays
                0x000aef14                x_report
                0x000af194                z_report
                0x000af9b4                void_receipt
 .text          0x000afeb0      0x170 ./src1/string_convert.o
                0x000affbc                string_len
                0x000afeb0                string_covert
 .text          0x000b0020      0xf1c ./src1/touch.o
                0x000b05ec                touch_line
                0x000b0898                touch_line_ex
                0x000b0324                touch_clear
                0x000b0824                swap_int
                0x000b02b4                touch_uninit
                0x000b0020                touch_init
                0x000b03b8                touch_pixel
                0x000b0dac                touch_get_draw
 .text          0x000b0f3c      0x410 ./src1/touch_demo.o
                0x000b0f3c                touch_demo
 .text          0x000b134c        0x0 ./src1/transaction.o
 .text          0x000b134c      0x2e8 ./src1/uart_demo.o
                0x000b134c                uart_demo
 .text          0x000b1634      0x9cc ./src1/video.o
                0x000b1634                main1
 .text          0x000b2000      0x180 ./src1/visualstring.o
                0x000b2080                helper_remove_feff
                0x000b2000                helper_remove_char_at
                0x000b2138                bidi_init
 .text          0x000b2180      0x460 ./jsonfiles/arraylist.o
                0x000b2454                array_list_put_idx
                0x000b2244                array_list_free
                0x000b2180                array_list_new
                0x000b2538                array_list_add
                0x000b22f0                array_list_get_idx
                0x000b25bc                array_list_length
                0x000b2578                array_list_sort
 .text          0x000b25e0      0x21c ./jsonfiles/debug.o
                0x000b2790                mc_info
                0x000b2608                mc_get_debug
                0x000b2724                mc_error
                0x000b25e0                mc_set_debug
                0x000b2650                mc_abort
                0x000b2628                mc_set_syslog
                0x000b26b0                mc_debug
 .text          0x000b27fc     0x1acc ./jsonfiles/json_object.o
                0x000b32b4                json_object_object_get
                0x000b428c                json_object_array_get_idx
                0x000b34a0                json_object_get_boolean
                0x000b3c4c                json_object_new_string
                0x000b40bc                json_object_new_array
                0x000b2b54                json_object_put
                0x000b2c60                json_object_is_type
                0x000b3cf0                json_object_new_string_len
                0x000b2d10                json_object_to_json_string_ext
                0x000b31f4                json_object_get_object
                0x000b3828                json_object_new_int64
                0x000b3388                json_object_object_del
                0x000b367c                json_object_get_int
                0x000b420c                json_object_array_add
                0x000b3da8                json_object_get_string
                0x000b3164                json_object_new_object
                0x000b41a8                json_object_array_sort
                0x000b3e14                json_object_get_string_len
                0x000b41dc                json_object_array_length
                0x000b32f0                json_object_object_get_ex
                0x000b3a90                json_object_get_double
                0x000b4144                json_object_get_array
                0x000b3430                json_object_new_boolean
                0x000b4248                json_object_array_put_idx
                0x000b3604                json_object_new_int
                0x000b2b14                json_object_get
                0x000b38a4                json_object_get_int64
                0x000b3258                json_object_object_add
                0x000b2df0                json_object_to_json_string
                0x000b3a14                json_object_new_double
                0x000b2cc8                json_object_get_type
 .text          0x000b42c8      0x154 ./jsonfiles/json_object_iterator.o
                0x000b43f8                json_object_iter_init_default
                0x000b4308                json_object_iter_end
                0x000b42c8                json_object_iter_begin
                0x000b43b8                json_object_iter_equal
                0x000b433c                json_object_iter_next
                0x000b4390                json_object_iter_peek_value
                0x000b4368                json_object_iter_peek_name
 .text          0x000b441c     0x4228 ./jsonfiles/json_tokener.o
                0x000b46d0                json_tokener_parse
                0x000b47e4                json_tokener_parse_ex
                0x000b4500                json_tokener_free
                0x000b4494                json_tokener_new
                0x000b465c                json_tokener_reset
                0x000b4470                json_tokener_get_error
                0x000b470c                json_tokener_parse_verbose
                0x000b441c                json_tokener_error_desc
 .text          0x000b8644      0x6dc ./jsonfiles/json_util.o
                0x000b89a4                json_object_to_file
                0x000b8cbc                json_type_to_name
                0x000b8644                json_object_from_file
                0x000b87fc                json_object_to_file_ext
                0x000b89dc                json_parse_int64
 .text          0x000b8d20      0xd20 ./jsonfiles/linkhash.o
                0x000b9020                lh_kptr_table_new
                0x000b94c4                lh_table_lookup_entry
                0x000b8eb0                lh_table_new
                0x000b8de0                lh_char_hash
                0x000b9644                lh_table_lookup
                0x000b99d8                lh_table_delete
                0x000b9680                lh_table_lookup_ex
                0x000b8d54                lh_ptr_hash
                0x000b8e68                lh_char_equal
                0x000b9178                lh_table_free
                0x000b9714                lh_table_delete_entry
                0x000b91f8                lh_table_insert
                0x000b9070                lh_table_resize
                0x000b8fd0                lh_kchar_table_new
                0x000b8d20                lh_abort
                0x000b8da8                lh_ptr_equal
 .text          0x000b9a40      0x584 ./jsonfiles/printbuf.o
                0x000b9f54                printbuf_reset
                0x000b9b30                printbuf_new
                0x000b9ca4                printbuf_memappend
                0x000b9d8c                printbuf_memset
                0x000b9f88                printbuf_free
                0x000b9e64                sprintbuf
 .text          0x000b9fc4      0x110 /opt/compiler/glibc-oabi-toolchain-arm-generic/lib/gcc/arm-unknown-linux-gnu/4.3.4/libgcc.a(_udivsi3.o)
                0x000b9fc4                __udivsi3
                0x000ba0bc                __aeabi_uidivmod
                0x000b9fc4                __aeabi_uidiv
 .text          0x000ba0d4      0x140 /opt/compiler/glibc-oabi-toolchain-arm-generic/lib/gcc/arm-unknown-linux-gnu/4.3.4/libgcc.a(_divsi3.o)
                0x000ba0d4                __aeabi_idiv
                0x000ba0d4                __divsi3
                0x000ba1fc                __aeabi_idivmod
 .text          0x000ba214       0xcc /opt/compiler/glibc-oabi-toolchain-arm-generic/lib/gcc/arm-unknown-linux-gnu/4.3.4/libgcc.a(_umodsi3.o)
                0x000ba214                __umodsi3
 .text          0x000ba2e0       0xe4 /opt/compiler/glibc-oabi-toolchain-arm-generic/lib/gcc/arm-unknown-linux-gnu/4.3.4/libgcc.a(_modsi3.o)
                0x000ba2e0                __modsi3
 .text          0x000ba3c4        0x4 /opt/compiler/glibc-oabi-toolchain-arm-generic/lib/gcc/arm-unknown-linux-gnu/4.3.4/libgcc.a(_dvmd_tls.o)
                0x000ba3c4                __div0
                0x000ba3c4                __aeabi_idiv0
                0x000ba3c4                __aeabi_ldiv0
 .text          0x000ba3c8      0x400 /opt/compiler/glibc-oabi-toolchain-arm-generic/lib/gcc/arm-unknown-linux-gnu/4.3.4/libgcc.a(_addsubdf3.o)
                0x000ba6b4                __aeabi_ui2d
                0x000ba748                __aeabi_ul2d
                0x000ba6dc                __floatsidf
                0x000ba3d0                __subdf3
                0x000ba6b4                __floatunsidf
                0x000ba3d4                __adddf3
                0x000ba75c                __floatdidf
                0x000ba3d0                __aeabi_dsub
                0x000ba708                __extendsfdf2
                0x000ba75c                __aeabi_l2d
                0x000ba708                __aeabi_f2d
                0x000ba748                __floatundidf
                0x000ba3d4                __aeabi_dadd
                0x000ba6dc                __aeabi_i2d
                0x000ba3c8                __aeabi_drsub
 .text          0x000ba7c8      0x52c /opt/compiler/glibc-oabi-toolchain-arm-generic/lib/gcc/arm-unknown-linux-gnu/4.3.4/libgcc.a(_muldivdf3.o)
                0x000ba7c8                __muldf3
                0x000baaf0                __aeabi_ddiv
                0x000ba7c8                __aeabi_dmul
                0x000baaf0                __divdf3
 .text          0x000bacf4      0x128 /opt/compiler/glibc-oabi-toolchain-arm-generic/lib/gcc/arm-unknown-linux-gnu/4.3.4/libgcc.a(_cmpdf2.o)
                0x000bad88                __aeabi_cdrcmple
                0x000bae08                __aeabi_dcmpgt
                0x000bacfc                __ltdf2
                0x000bacf4                __gedf2
                0x000bade0                __aeabi_dcmple
                0x000bada4                __aeabi_cdcmple
                0x000bada4                __aeabi_cdcmpeq
                0x000badf4                __aeabi_dcmpge
                0x000bacf4                __gtdf2
                0x000badcc                __aeabi_dcmplt
                0x000bad04                __eqdf2
                0x000badb8                __aeabi_dcmpeq
                0x000bacfc                __ledf2
                0x000bad04                __cmpdf2
                0x000bad04                __nedf2
 .text          0x000bae1c       0x5c /opt/compiler/glibc-oabi-toolchain-arm-generic/lib/gcc/arm-unknown-linux-gnu/4.3.4/libgcc.a(_fixdfsi.o)
                0x000bae1c                __aeabi_d2iz
                0x000bae1c                __fixdfsi
 .text          0x000bae78       0x54 /opt/compiler/glibc-oabi-toolchain-arm-generic/lib/gcc/arm-unknown-linux-gnu/4.3.4/libgcc.a(_fixunsdfsi.o)
                0x000bae78                __fixunsdfsi
                0x000bae78                __aeabi_d2uiz
 .text          0x000baecc       0xa0 /opt/compiler/glibc-oabi-toolchain-arm-generic/lib/gcc/arm-unknown-linux-gnu/4.3.4/libgcc.a(_truncdfsf2.o)
                0x000baecc                __truncdfsf2
                0x000baecc                __aeabi_d2f
 .text          0x000baf6c      0x2ac /opt/compiler/glibc-oabi-toolchain-arm-generic/lib/gcc/arm-unknown-linux-gnu/4.3.4/libgcc.a(_addsubsf3.o)
                0x000bb13c                __floatsisf
                0x000baf74                __subsf3
                0x000bb134                __aeabi_ui2f
                0x000baf6c                __aeabi_frsub
                0x000baf74                __aeabi_fsub
                0x000bb15c                __floatundisf
                0x000bb16c                __floatdisf
                0x000bb13c                __aeabi_i2f
                0x000baf78                __addsf3
                0x000baf78                __aeabi_fadd
                0x000bb16c                __aeabi_l2f
                0x000bb15c                __aeabi_ul2f
                0x000bb134                __floatunsisf
 .text          0x000bb218      0x324 /opt/compiler/glibc-oabi-toolchain-arm-generic/lib/gcc/arm-unknown-linux-gnu/4.3.4/libgcc.a(_muldivsf3.o)
                0x000bb3dc                __divsf3
                0x000bb218                __mulsf3
                0x000bb3dc                __aeabi_fdiv
                0x000bb218                __aeabi_fmul
 .text          0x000bb53c       0xf8 /opt/compiler/glibc-oabi-toolchain-arm-generic/lib/gcc/arm-unknown-linux-gnu/4.3.4/libgcc.a(_cmpsf2.o)
                0x000bb5d0                __aeabi_fcmpeq
                0x000bb54c                __eqsf2
                0x000bb5ac                __aeabi_cfrcmple
                0x000bb620                __aeabi_fcmpgt
                0x000bb5bc                __aeabi_cfcmple
                0x000bb5bc                __aeabi_cfcmpeq
                0x000bb60c                __aeabi_fcmpge
                0x000bb5e4                __aeabi_fcmplt
                0x000bb544                __lesf2
                0x000bb53c                __gtsf2
                0x000bb54c                __cmpsf2
                0x000bb5f8                __aeabi_fcmple
                0x000bb54c                __nesf2
                0x000bb544                __ltsf2
                0x000bb53c                __gesf2
 .text          0x000bb634       0x5c /opt/compiler/glibc-oabi-toolchain-arm-generic/lib/gcc/arm-unknown-linux-gnu/4.3.4/libgcc.a(_fixsfsi.o)
                0x000bb634                __fixsfsi
                0x000bb634                __aeabi_f2iz
 .text          0x000bb690       0x54 /opt/compiler/glibc-oabi-toolchain-arm-generic/lib/gcc/arm-unknown-linux-gnu/4.3.4/libgcc.a(_fixunssfsi.o)
                0x000bb690                __aeabi_f2uiz
                0x000bb690                __fixunssfsi
 .text          0x000bb6e4       0x58 /opt/compiler/glibc-oabi-toolchain-arm-generic/lib/gcc/arm-unknown-linux-gnu/4.3.4/libgcc.a(_fixdfdi.o)
                0x000bb6e4                __fixdfdi
 .text          0x000bb73c       0x68 /opt/compiler/glibc-oabi-toolchain-arm-generic/lib/gcc/arm-unknown-linux-gnu/4.3.4/libgcc.a(_fixunsdfdi.o)
                0x000bb73c                __fixunsdfdi
 .text          0x000bb7a4      0x504 /opt/compiler/glibc-oabi-toolchain-arm-generic/lib/gcc/arm-unknown-linux-gnu/4.3.4/libgcc.a(_udivdi3.o)
                0x000bb7a4                __udivdi3
 .text          0x000bbca8      0x440 /opt/compiler/glibc-oabi-toolchain-arm-generic/lib/gcc/arm-unknown-linux-gnu/4.3.4/libgcc.a(_umoddi3.o)
                0x000bbca8                __umoddi3
 .text          0x000bc0e8        0x0 /opt/compiler/glibc-oabi-toolchain-arm-generic/lib/gcc/arm-unknown-linux-gnu/4.3.4/libgcc.a(_clz.o)
 .text          0x000bc0e8       0x70 /opt/compiler/glibc-oabi-toolchain-arm-generic/arm-unknown-linux-gnu//sys-root/usr/lib/libc_nonshared.a(elf-init.oS)
                0x000bc0ec                __libc_csu_init
                0x000bc0e8                __libc_csu_fini
 .text          0x000bc158       0x34 /opt/compiler/glibc-oabi-toolchain-arm-generic/lib/gcc/arm-unknown-linux-gnu/4.3.4/crtend.o
 .text          0x000bc18c        0x0 /opt/compiler/glibc-oabi-toolchain-arm-generic/arm-unknown-linux-gnu//sys-root/usr/lib/crtn.o
 *(.gnu.warning)
 *(.glue_7t)
 .glue_7t       0x000bc18c        0x0 /opt/compiler/glibc-oabi-toolchain-arm-generic/arm-unknown-linux-gnu//sys-root/usr/lib/crt1.o
 .glue_7t       0x000bc18c        0x0 /opt/compiler/glibc-oabi-toolchain-arm-generic/arm-unknown-linux-gnu//sys-root/usr/lib/crti.o
 .glue_7t       0x000bc18c        0x0 /opt/compiler/glibc-oabi-toolchain-arm-generic/lib/gcc/arm-unknown-linux-gnu/4.3.4/crtbegin.o
 .glue_7t       0x000bc18c        0x0 ./zint-master/frontend/getopt.o
 .glue_7t       0x000bc18c        0x0 ./zint-master/frontend/getopt1.o
 .glue_7t       0x000bc18c        0x0 ./zint-master/backend/2of5.o
 .glue_7t       0x000bc18c        0x0 ./zint-master/backend/auspost.o
 .glue_7t       0x000bc18c        0x0 ./zint-master/backend/aztec.o
 .glue_7t       0x000bc18c        0x0 ./zint-master/backend/code.o
 .glue_7t       0x000bc18c        0x0 ./zint-master/backend/code1.o
 .glue_7t       0x000bc18c        0x0 ./zint-master/backend/code128.o
 .glue_7t       0x000bc18c        0x0 ./zint-master/backend/code16k.o
 .glue_7t       0x000bc18c        0x0 ./zint-master/backend/code49.o
 .glue_7t       0x000bc18c        0x0 ./zint-master/backend/common.o
 .glue_7t       0x000bc18c        0x0 ./zint-master/backend/composite.o
 .glue_7t       0x000bc18c        0x0 ./zint-master/backend/dllversion.o
 .glue_7t       0x000bc18c        0x0 ./zint-master/backend/dmatrix.o
 .glue_7t       0x000bc18c        0x0 ./zint-master/backend/gridmtx.o
 .glue_7t       0x000bc18c        0x0 ./zint-master/backend/gs1.o
 .glue_7t       0x000bc18c        0x0 ./zint-master/backend/imail.o
 .glue_7t       0x000bc18c        0x0 ./zint-master/backend/large.o
 .glue_7t       0x000bc18c        0x0 ./zint-master/backend/library.o
 .glue_7t       0x000bc18c        0x0 ./zint-master/backend/maxicode.o
 .glue_7t       0x000bc18c        0x0 ./zint-master/backend/medical.o
 .glue_7t       0x000bc18c        0x0 ./zint-master/backend/pdf417.o
 .glue_7t       0x000bc18c        0x0 ./zint-master/backend/plessey.o
 .glue_7t       0x000bc18c        0x0 ./zint-master/backend/png.o
 .glue_7t       0x000bc18c        0x0 ./zint-master/backend/postal.o
 .glue_7t       0x000bc18c        0x0 ./zint-master/backend/ps.o
 .glue_7t       0x000bc18c        0x0 ./zint-master/backend/qr.o
 .glue_7t       0x000bc18c        0x0 ./zint-master/backend/reedsol.o
 .glue_7t       0x000bc18c        0x0 ./zint-master/backend/render.o
 .glue_7t       0x000bc18c        0x0 ./zint-master/backend/rss.o
 .glue_7t       0x000bc18c        0x0 ./zint-master/backend/svg.o
 .glue_7t       0x000bc18c        0x0 ./zint-master/backend/telepen.o
 .glue_7t       0x000bc18c        0x0 ./zint-master/backend/upcean.o
 .glue_7t       0x000bc18c        0x0 ./src1/ContactSmartCard.o
 .glue_7t       0x000bc18c        0x0 ./src1/JSON_checker.o
 .glue_7t       0x000bc18c        0x0 ./src1/Z_report.o
 .glue_7t       0x000bc18c        0x0 ./src1/cJSON.o
 .glue_7t       0x000bc18c        0x0 ./src1/cardinfo.o
 .glue_7t       0x000bc18c        0x0 ./src1/cl_smartcard_demo.o
 .glue_7t       0x000bc18c        0x0 ./src1/configurations.o
 .glue_7t       0x000bc18c        0x0 ./src1/desfire_test.o
 .glue_7t       0x000bc18c        0x0 ./src1/display.o
 .glue_7t       0x000bc18c        0x0 ./src1/fp_test.o
 .glue_7t       0x000bc18c        0x0 ./src1/gprs_demo.o
 .glue_7t       0x000bc18c        0x0 ./src1/jsonread.o
 .glue_7t       0x000bc18c        0x0 ./src1/jsontest.o
 .glue_7t       0x000bc18c        0x0 ./src1/keyboart.o
 .glue_7t       0x000bc18c        0x0 ./src1/lcd.o
 .glue_7t       0x000bc18c        0x0 ./src1/magneticstrip_demo.o
 .glue_7t       0x000bc18c        0x0 ./src1/main.o
 .glue_7t       0x000bc18c        0x0 ./src1/menu_back_forth.o
 .glue_7t       0x000bc18c        0x0 ./src1/menu_hash.o
 .glue_7t       0x000bc18c        0x0 ./src1/modem_demo.o
 .glue_7t       0x000bc18c        0x0 ./src1/mutwol.o
 .glue_7t       0x000bc18c        0x0 ./src1/network_f.o
 .glue_7t       0x000bc18c        0x0 ./src1/postslib_extern.o
 .glue_7t       0x000bc18c        0x0 ./src1/printer_demo.o
 .glue_7t       0x000bc18c        0x0 ./src1/receipt.o
 .glue_7t       0x000bc18c        0x0 ./src1/socket_demo.o
 .glue_7t       0x000bc18c        0x0 ./src1/sql_functions.o
 .glue_7t       0x000bc18c        0x0 ./src1/string_convert.o
 .glue_7t       0x000bc18c        0x0 ./src1/touch.o
 .glue_7t       0x000bc18c        0x0 ./src1/touch_demo.o
 .glue_7t       0x000bc18c        0x0 ./src1/transaction.o
 .glue_7t       0x000bc18c        0x0 ./src1/uart_demo.o
 .glue_7t       0x000bc18c        0x0 ./src1/video.o
 .glue_7t       0x000bc18c        0x0 ./src1/visualstring.o
 .glue_7t       0x000bc18c        0x0 ./jsonfiles/arraylist.o
 .glue_7t       0x000bc18c        0x0 ./jsonfiles/debug.o
 .glue_7t       0x000bc18c        0x0 ./jsonfiles/json_object.o
 .glue_7t       0x000bc18c        0x0 ./jsonfiles/json_object_iterator.o
 .glue_7t       0x000bc18c        0x0 ./jsonfiles/json_tokener.o
 .glue_7t       0x000bc18c        0x0 ./jsonfiles/json_util.o
 .glue_7t       0x000bc18c        0x0 ./jsonfiles/linkhash.o
 .glue_7t       0x000bc18c        0x0 ./jsonfiles/printbuf.o
 .glue_7t       0x000bc18c        0x0 /home/pos/NEWPOS/sdk/lib/libz.so
 .glue_7t       0x000bc18c        0x0 /home/pos/NEWPOS/FDx_SDK_PRO_LINUX_ARM11_OABI_3_7_1_REV922/lib/arm11_oabi/libsgfpamx.so
 .glue_7t       0x000bc18c        0x0 /home/pos/NEWPOS/FDx_SDK_PRO_LINUX_ARM11_OABI_3_7_1_REV922/lib/arm11_oabi/libsgfdu04.so
 .glue_7t       0x000bc18c        0x0 /home/pos/NEWPOS/FDx_SDK_PRO_LINUX_ARM11_OABI_3_7_1_REV922/lib/arm11_oabi/libsgfplib.so
 .glue_7t       0x000bc18c        0x0 /home/pos/NEWPOS/sdk/lib/libusb.so
 .glue_7t       0x000bc18c        0x0 /home/pos/NEWPOS/sdk/lib/libusbpp.so
 .glue_7t       0x000bc18c        0x0 /home/pos/NEWPOS/sdk/lib/libsqlite3.so
 .glue_7t       0x000bc18c        0x0 /home/pos/NEWPOS/sdk/lib/libcurl.so
 .glue_7t       0x000bc18c        0x0 /home/pos/NEWPOS/sdk/lib/libts.so
 .glue_7t       0x000bc18c        0x0 /home/pos/NEWPOS/sdk/lib/libssl.so
 .glue_7t       0x000bc18c        0x0 /home/pos/NEWPOS/sdk/lib/libdirect.so
 .glue_7t       0x000bc18c        0x0 /home/pos/NEWPOS/sdk/lib/libdirectfb.so
 .glue_7t       0x000bc18c        0x0 /home/pos/NEWPOS/sdk/lib/libemv.so
 .glue_7t       0x000bc18c        0x0 /home/pos/NEWPOS/sdk/lib/libiccard.so
 .glue_7t       0x000bc18c        0x0 /home/pos/NEWPOS/sdk/lib/libnfc.so
 .glue_7t       0x000bc18c        0x0 /home/pos/NEWPOS/sdk/lib/libpng.so
 .glue_7t       0x000bc18c        0x0 /home/pos/NEWPOS/sdk/lib/libpos.so
 .glue_7t       0x000bc18c        0x0 /home/pos/NEWPOS/sdk/lib/libcrypto.so
 .glue_7t       0x000bc18c        0x0 /home/pos/NEWPOS/sdk/lib/libped.so
 .glue_7t       0x000bc18c        0x0 /home/pos/NEWPOS/sdk/lib/libfusion.so
 .glue_7t       0x000bc18c        0x0 /opt/compiler/glibc-oabi-toolchain-arm-generic/lib/gcc/arm-unknown-linux-gnu/4.3.4/libgcc.a(_udivsi3.o)
 .glue_7t       0x000bc18c        0x0 /opt/compiler/glibc-oabi-toolchain-arm-generic/lib/gcc/arm-unknown-linux-gnu/4.3.4/libgcc.a(_divsi3.o)
 .glue_7t       0x000bc18c        0x0 /opt/compiler/glibc-oabi-toolchain-arm-generic/lib/gcc/arm-unknown-linux-gnu/4.3.4/libgcc.a(_umodsi3.o)
 .glue_7t       0x000bc18c        0x0 /opt/compiler/glibc-oabi-toolchain-arm-generic/lib/gcc/arm-unknown-linux-gnu/4.3.4/libgcc.a(_modsi3.o)
 .glue_7t       0x000bc18c        0x0 /opt/compiler/glibc-oabi-toolchain-arm-generic/lib/gcc/arm-unknown-linux-gnu/4.3.4/libgcc.a(_dvmd_tls.o)
 .glue_7t       0x000bc18c        0x0 /opt/compiler/glibc-oabi-toolchain-arm-generic/lib/gcc/arm-unknown-linux-gnu/4.3.4/libgcc.a(_addsubdf3.o)
 .glue_7t       0x000bc18c        0x0 /opt/compiler/glibc-oabi-toolchain-arm-generic/lib/gcc/arm-unknown-linux-gnu/4.3.4/libgcc.a(_muldivdf3.o)
 .glue_7t       0x000bc18c        0x0 /opt/compiler/glibc-oabi-toolchain-arm-generic/lib/gcc/arm-unknown-linux-gnu/4.3.4/libgcc.a(_cmpdf2.o)
 .glue_7t       0x000bc18c        0x0 /opt/compiler/glibc-oabi-toolchain-arm-generic/lib/gcc/arm-unknown-linux-gnu/4.3.4/libgcc.a(_fixdfsi.o)
 .glue_7t       0x000bc18c        0x0 /opt/compiler/glibc-oabi-toolchain-arm-generic/lib/gcc/arm-unknown-linux-gnu/4.3.4/libgcc.a(_fixunsdfsi.o)
 .glue_7t       0x000bc18c        0x0 /opt/compiler/glibc-oabi-toolchain-arm-generic/lib/gcc/arm-unknown-linux-gnu/4.3.4/libgcc.a(_truncdfsf2.o)
 .glue_7t       0x000bc18c        0x0 /opt/compiler/glibc-oabi-toolchain-arm-generic/lib/gcc/arm-unknown-linux-gnu/4.3.4/libgcc.a(_addsubsf3.o)
 .glue_7t       0x000bc18c        0x0 /opt/compiler/glibc-oabi-toolchain-arm-generic/lib/gcc/arm-unknown-linux-gnu/4.3.4/libgcc.a(_muldivsf3.o)
 .glue_7t       0x000bc18c        0x0 /opt/compiler/glibc-oabi-toolchain-arm-generic/lib/gcc/arm-unknown-linux-gnu/4.3.4/libgcc.a(_cmpsf2.o)
 .glue_7t       0x000bc18c        0x0 /opt/compiler/glibc-oabi-toolchain-arm-generic/lib/gcc/arm-unknown-linux-gnu/4.3.4/libgcc.a(_fixsfsi.o)
 .glue_7t       0x000bc18c        0x0 /opt/compiler/glibc-oabi-toolchain-arm-generic/lib/gcc/arm-unknown-linux-gnu/4.3.4/libgcc.a(_fixunssfsi.o)
 .glue_7t       0x000bc18c        0x0 /opt/compiler/glibc-oabi-toolchain-arm-generic/lib/gcc/arm-unknown-linux-gnu/4.3.4/libgcc.a(_fixdfdi.o)
 .glue_7t       0x000bc18c        0x0 /opt/compiler/glibc-oabi-toolchain-arm-generic/lib/gcc/arm-unknown-linux-gnu/4.3.4/libgcc.a(_fixunsdfdi.o)
 .glue_7t       0x000bc18c        0x0 /opt/compiler/glibc-oabi-toolchain-arm-generic/lib/gcc/arm-unknown-linux-gnu/4.3.4/libgcc.a(_udivdi3.o)
 .glue_7t       0x000bc18c        0x0 /opt/compiler/glibc-oabi-toolchain-arm-generic/lib/gcc/arm-unknown-linux-gnu/4.3.4/libgcc.a(_umoddi3.o)
 .glue_7t       0x000bc18c        0x0 /opt/compiler/glibc-oabi-toolchain-arm-generic/lib/gcc/arm-unknown-linux-gnu/4.3.4/libgcc.a(_clz.o)
 .glue_7t       0x000bc18c        0x0 /opt/compiler/glibc-oabi-toolchain-arm-generic/lib/gcc/arm-unknown-linux-gnu/4.3.4/../../../../arm-unknown-linux-gnu/lib/libgcc_s.so
 .glue_7t       0x000bc18c        0x0 /opt/compiler/glibc-oabi-toolchain-arm-generic/arm-unknown-linux-gnu//sys-root/lib/libc.so.6
 .glue_7t       0x000bc18c        0x0 /opt/compiler/glibc-oabi-toolchain-arm-generic/arm-unknown-linux-gnu//sys-root/usr/lib/libc_nonshared.a(elf-init.oS)
 .glue_7t       0x000bc18c        0x0 /opt/compiler/glibc-oabi-toolchain-arm-generic/arm-unknown-linux-gnu//sys-root/lib/ld-linux.so.2
 .glue_7t       0x000bc18c        0x0 /opt/compiler/glibc-oabi-toolchain-arm-generic/lib/gcc/arm-unknown-linux-gnu/4.3.4/../../../../arm-unknown-linux-gnu/lib/libgcc_s.so
 .glue_7t       0x000bc18c        0x0 /opt/compiler/glibc-oabi-toolchain-arm-generic/lib/gcc/arm-unknown-linux-gnu/4.3.4/crtend.o
 .glue_7t       0x000bc18c        0x0 /opt/compiler/glibc-oabi-toolchain-arm-generic/arm-unknown-linux-gnu//sys-root/usr/lib/crtn.o
 *(.glue_7)
 .glue_7        0x000bc18c        0x0 /opt/compiler/glibc-oabi-toolchain-arm-generic/arm-unknown-linux-gnu//sys-root/usr/lib/crt1.o
 .glue_7        0x000bc18c        0x0 /opt/compiler/glibc-oabi-toolchain-arm-generic/arm-unknown-linux-gnu//sys-root/usr/lib/crti.o
 .glue_7        0x000bc18c        0x0 /opt/compiler/glibc-oabi-toolchain-arm-generic/lib/gcc/arm-unknown-linux-gnu/4.3.4/crtbegin.o
 .glue_7        0x000bc18c        0x0 ./zint-master/frontend/getopt.o
 .glue_7        0x000bc18c        0x0 ./zint-master/frontend/getopt1.o
 .glue_7        0x000bc18c        0x0 ./zint-master/backend/2of5.o
 .glue_7        0x000bc18c        0x0 ./zint-master/backend/auspost.o
 .glue_7        0x000bc18c        0x0 ./zint-master/backend/aztec.o
 .glue_7        0x000bc18c        0x0 ./zint-master/backend/code.o
 .glue_7        0x000bc18c        0x0 ./zint-master/backend/code1.o
 .glue_7        0x000bc18c        0x0 ./zint-master/backend/code128.o
 .glue_7        0x000bc18c        0x0 ./zint-master/backend/code16k.o
 .glue_7        0x000bc18c        0x0 ./zint-master/backend/code49.o
 .glue_7        0x000bc18c        0x0 ./zint-master/backend/common.o
 .glue_7        0x000bc18c        0x0 ./zint-master/backend/composite.o
 .glue_7        0x000bc18c        0x0 ./zint-master/backend/dllversion.o
 .glue_7        0x000bc18c        0x0 ./zint-master/backend/dmatrix.o
 .glue_7        0x000bc18c        0x0 ./zint-master/backend/gridmtx.o
 .glue_7        0x000bc18c        0x0 ./zint-master/backend/gs1.o
 .glue_7        0x000bc18c        0x0 ./zint-master/backend/imail.o
 .glue_7        0x000bc18c        0x0 ./zint-master/backend/large.o
 .glue_7        0x000bc18c        0x0 ./zint-master/backend/library.o
 .glue_7        0x000bc18c        0x0 ./zint-master/backend/maxicode.o
 .glue_7        0x000bc18c        0x0 ./zint-master/backend/medical.o
 .glue_7        0x000bc18c        0x0 ./zint-master/backend/pdf417.o
 .glue_7        0x000bc18c        0x0 ./zint-master/backend/plessey.o
 .glue_7        0x000bc18c        0x0 ./zint-master/backend/png.o
 .glue_7        0x000bc18c        0x0 ./zint-master/backend/postal.o
 .glue_7        0x000bc18c        0x0 ./zint-master/backend/ps.o
 .glue_7        0x000bc18c        0x0 ./zint-master/backend/qr.o
 .glue_7        0x000bc18c        0x0 ./zint-master/backend/reedsol.o
 .glue_7        0x000bc18c        0x0 ./zint-master/backend/render.o
 .glue_7        0x000bc18c        0x0 ./zint-master/backend/rss.o
 .glue_7        0x000bc18c        0x0 ./zint-master/backend/svg.o
 .glue_7        0x000bc18c        0x0 ./zint-master/backend/telepen.o
 .glue_7        0x000bc18c        0x0 ./zint-master/backend/upcean.o
 .glue_7        0x000bc18c        0x0 ./src1/ContactSmartCard.o
 .glue_7        0x000bc18c        0x0 ./src1/JSON_checker.o
 .glue_7        0x000bc18c        0x0 ./src1/Z_report.o
 .glue_7        0x000bc18c        0x0 ./src1/cJSON.o
 .glue_7        0x000bc18c        0x0 ./src1/cardinfo.o
 .glue_7        0x000bc18c        0x0 ./src1/cl_smartcard_demo.o
 .glue_7        0x000bc18c        0x0 ./src1/configurations.o
 .glue_7        0x000bc18c        0x0 ./src1/desfire_test.o
 .glue_7        0x000bc18c        0x0 ./src1/display.o
 .glue_7        0x000bc18c        0x0 ./src1/fp_test.o
 .glue_7        0x000bc18c        0x0 ./src1/gprs_demo.o
 .glue_7        0x000bc18c        0x0 ./src1/jsonread.o
 .glue_7        0x000bc18c        0x0 ./src1/jsontest.o
 .glue_7        0x000bc18c        0x0 ./src1/keyboart.o
 .glue_7        0x000bc18c        0x0 ./src1/lcd.o
 .glue_7        0x000bc18c        0x0 ./src1/magneticstrip_demo.o
 .glue_7        0x000bc18c        0x0 ./src1/main.o
 .glue_7        0x000bc18c        0x0 ./src1/menu_back_forth.o
 .glue_7        0x000bc18c        0x0 ./src1/menu_hash.o
 .glue_7        0x000bc18c        0x0 ./src1/modem_demo.o
 .glue_7        0x000bc18c        0x0 ./src1/mutwol.o
 .glue_7        0x000bc18c        0x0 ./src1/network_f.o
 .glue_7        0x000bc18c        0x0 ./src1/postslib_extern.o
 .glue_7        0x000bc18c        0x0 ./src1/printer_demo.o
 .glue_7        0x000bc18c        0x0 ./src1/receipt.o
 .glue_7        0x000bc18c        0x0 ./src1/socket_demo.o
 .glue_7        0x000bc18c        0x0 ./src1/sql_functions.o
 .glue_7        0x000bc18c        0x0 ./src1/string_convert.o
 .glue_7        0x000bc18c        0x0 ./src1/touch.o
 .glue_7        0x000bc18c        0x0 ./src1/touch_demo.o
 .glue_7        0x000bc18c        0x0 ./src1/transaction.o
 .glue_7        0x000bc18c        0x0 ./src1/uart_demo.o
 .glue_7        0x000bc18c        0x0 ./src1/video.o
 .glue_7        0x000bc18c        0x0 ./src1/visualstring.o
 .glue_7        0x000bc18c        0x0 ./jsonfiles/arraylist.o
 .glue_7        0x000bc18c        0x0 ./jsonfiles/debug.o
 .glue_7        0x000bc18c        0x0 ./jsonfiles/json_object.o
 .glue_7        0x000bc18c        0x0 ./jsonfiles/json_object_iterator.o
 .glue_7        0x000bc18c        0x0 ./jsonfiles/json_tokener.o
 .glue_7        0x000bc18c        0x0 ./jsonfiles/json_util.o
 .glue_7        0x000bc18c        0x0 ./jsonfiles/linkhash.o
 .glue_7        0x000bc18c        0x0 ./jsonfiles/printbuf.o
 .glue_7        0x000bc18c        0x0 /home/pos/NEWPOS/sdk/lib/libz.so
 .glue_7        0x000bc18c        0x0 /home/pos/NEWPOS/FDx_SDK_PRO_LINUX_ARM11_OABI_3_7_1_REV922/lib/arm11_oabi/libsgfpamx.so
 .glue_7        0x000bc18c        0x0 /home/pos/NEWPOS/FDx_SDK_PRO_LINUX_ARM11_OABI_3_7_1_REV922/lib/arm11_oabi/libsgfdu04.so
 .glue_7        0x000bc18c        0x0 /home/pos/NEWPOS/FDx_SDK_PRO_LINUX_ARM11_OABI_3_7_1_REV922/lib/arm11_oabi/libsgfplib.so
 .glue_7        0x000bc18c        0x0 /home/pos/NEWPOS/sdk/lib/libusb.so
 .glue_7        0x000bc18c        0x0 /home/pos/NEWPOS/sdk/lib/libusbpp.so
 .glue_7        0x000bc18c        0x0 /home/pos/NEWPOS/sdk/lib/libsqlite3.so
 .glue_7        0x000bc18c        0x0 /home/pos/NEWPOS/sdk/lib/libcurl.so
 .glue_7        0x000bc18c        0x0 /home/pos/NEWPOS/sdk/lib/libts.so
 .glue_7        0x000bc18c        0x0 /home/pos/NEWPOS/sdk/lib/libssl.so
 .glue_7        0x000bc18c        0x0 /home/pos/NEWPOS/sdk/lib/libdirect.so
 .glue_7        0x000bc18c        0x0 /home/pos/NEWPOS/sdk/lib/libdirectfb.so
 .glue_7        0x000bc18c        0x0 /home/pos/NEWPOS/sdk/lib/libemv.so
 .glue_7        0x000bc18c        0x0 /home/pos/NEWPOS/sdk/lib/libiccard.so
 .glue_7        0x000bc18c        0x0 /home/pos/NEWPOS/sdk/lib/libnfc.so
 .glue_7        0x000bc18c        0x0 /home/pos/NEWPOS/sdk/lib/libpng.so
 .glue_7        0x000bc18c        0x0 /home/pos/NEWPOS/sdk/lib/libpos.so
 .glue_7        0x000bc18c        0x0 /home/pos/NEWPOS/sdk/lib/libcrypto.so
 .glue_7        0x000bc18c        0x0 /home/pos/NEWPOS/sdk/lib/libped.so
 .glue_7        0x000bc18c        0x0 /home/pos/NEWPOS/sdk/lib/libfusion.so
 .glue_7        0x000bc18c        0x0 /opt/compiler/glibc-oabi-toolchain-arm-generic/lib/gcc/arm-unknown-linux-gnu/4.3.4/libgcc.a(_udivsi3.o)
 .glue_7        0x000bc18c        0x0 /opt/compiler/glibc-oabi-toolchain-arm-generic/lib/gcc/arm-unknown-linux-gnu/4.3.4/libgcc.a(_divsi3.o)
 .glue_7        0x000bc18c        0x0 /opt/compiler/glibc-oabi-toolchain-arm-generic/lib/gcc/arm-unknown-linux-gnu/4.3.4/libgcc.a(_umodsi3.o)
 .glue_7        0x000bc18c        0x0 /opt/compiler/glibc-oabi-toolchain-arm-generic/lib/gcc/arm-unknown-linux-gnu/4.3.4/libgcc.a(_modsi3.o)
 .glue_7        0x000bc18c        0x0 /opt/compiler/glibc-oabi-toolchain-arm-generic/lib/gcc/arm-unknown-linux-gnu/4.3.4/libgcc.a(_dvmd_tls.o)
 .glue_7        0x000bc18c        0x0 /opt/compiler/glibc-oabi-toolchain-arm-generic/lib/gcc/arm-unknown-linux-gnu/4.3.4/libgcc.a(_addsubdf3.o)
 .glue_7        0x000bc18c        0x0 /opt/compiler/glibc-oabi-toolchain-arm-generic/lib/gcc/arm-unknown-linux-gnu/4.3.4/libgcc.a(_muldivdf3.o)
 .glue_7        0x000bc18c        0x0 /opt/compiler/glibc-oabi-toolchain-arm-generic/lib/gcc/arm-unknown-linux-gnu/4.3.4/libgcc.a(_cmpdf2.o)
 .glue_7        0x000bc18c        0x0 /opt/compiler/glibc-oabi-toolchain-arm-generic/lib/gcc/arm-unknown-linux-gnu/4.3.4/libgcc.a(_fixdfsi.o)
 .glue_7        0x000bc18c        0x0 /opt/compiler/glibc-oabi-toolchain-arm-generic/lib/gcc/arm-unknown-linux-gnu/4.3.4/libgcc.a(_fixunsdfsi.o)
 .glue_7        0x000bc18c        0x0 /opt/compiler/glibc-oabi-toolchain-arm-generic/lib/gcc/arm-unknown-linux-gnu/4.3.4/libgcc.a(_truncdfsf2.o)
 .glue_7        0x000bc18c        0x0 /opt/compiler/glibc-oabi-toolchain-arm-generic/lib/gcc/arm-unknown-linux-gnu/4.3.4/libgcc.a(_addsubsf3.o)
 .glue_7        0x000bc18c        0x0 /opt/compiler/glibc-oabi-toolchain-arm-generic/lib/gcc/arm-unknown-linux-gnu/4.3.4/libgcc.a(_muldivsf3.o)
 .glue_7        0x000bc18c        0x0 /opt/compiler/glibc-oabi-toolchain-arm-generic/lib/gcc/arm-unknown-linux-gnu/4.3.4/libgcc.a(_cmpsf2.o)
 .glue_7        0x000bc18c        0x0 /opt/compiler/glibc-oabi-toolchain-arm-generic/lib/gcc/arm-unknown-linux-gnu/4.3.4/libgcc.a(_fixsfsi.o)
 .glue_7        0x000bc18c        0x0 /opt/compiler/glibc-oabi-toolchain-arm-generic/lib/gcc/arm-unknown-linux-gnu/4.3.4/libgcc.a(_fixunssfsi.o)
 .glue_7        0x000bc18c        0x0 /opt/compiler/glibc-oabi-toolchain-arm-generic/lib/gcc/arm-unknown-linux-gnu/4.3.4/libgcc.a(_fixdfdi.o)
 .glue_7        0x000bc18c        0x0 /opt/compiler/glibc-oabi-toolchain-arm-generic/lib/gcc/arm-unknown-linux-gnu/4.3.4/libgcc.a(_fixunsdfdi.o)
 .glue_7        0x000bc18c        0x0 /opt/compiler/glibc-oabi-toolchain-arm-generic/lib/gcc/arm-unknown-linux-gnu/4.3.4/libgcc.a(_udivdi3.o)
 .glue_7        0x000bc18c        0x0 /opt/compiler/glibc-oabi-toolchain-arm-generic/lib/gcc/arm-unknown-linux-gnu/4.3.4/libgcc.a(_umoddi3.o)
 .glue_7        0x000bc18c        0x0 /opt/compiler/glibc-oabi-toolchain-arm-generic/lib/gcc/arm-unknown-linux-gnu/4.3.4/libgcc.a(_clz.o)
 .glue_7        0x000bc18c        0x0 /opt/compiler/glibc-oabi-toolchain-arm-generic/lib/gcc/arm-unknown-linux-gnu/4.3.4/../../../../arm-unknown-linux-gnu/lib/libgcc_s.so
 .glue_7        0x000bc18c        0x0 /opt/compiler/glibc-oabi-toolchain-arm-generic/arm-unknown-linux-gnu//sys-root/lib/libc.so.6
 .glue_7        0x000bc18c        0x0 /opt/compiler/glibc-oabi-toolchain-arm-generic/arm-unknown-linux-gnu//sys-root/usr/lib/libc_nonshared.a(elf-init.oS)
 .glue_7        0x000bc18c        0x0 /opt/compiler/glibc-oabi-toolchain-arm-generic/arm-unknown-linux-gnu//sys-root/lib/ld-linux.so.2
 .glue_7        0x000bc18c        0x0 /opt/compiler/glibc-oabi-toolchain-arm-generic/lib/gcc/arm-unknown-linux-gnu/4.3.4/../../../../arm-unknown-linux-gnu/lib/libgcc_s.so
 .glue_7        0x000bc18c        0x0 /opt/compiler/glibc-oabi-toolchain-arm-generic/lib/gcc/arm-unknown-linux-gnu/4.3.4/crtend.o
 .glue_7        0x000bc18c        0x0 /opt/compiler/glibc-oabi-toolchain-arm-generic/arm-unknown-linux-gnu//sys-root/usr/lib/crtn.o
 *(.vfp11_veneer)
 .vfp11_veneer  0x000bc18c        0x0 /opt/compiler/glibc-oabi-toolchain-arm-generic/arm-unknown-linux-gnu//sys-root/usr/lib/crt1.o
 .vfp11_veneer  0x000bc18c        0x0 /opt/compiler/glibc-oabi-toolchain-arm-generic/arm-unknown-linux-gnu//sys-root/usr/lib/crti.o
 .vfp11_veneer  0x000bc18c        0x0 /opt/compiler/glibc-oabi-toolchain-arm-generic/lib/gcc/arm-unknown-linux-gnu/4.3.4/crtbegin.o
 .vfp11_veneer  0x000bc18c        0x0 ./zint-master/frontend/getopt.o
 .vfp11_veneer  0x000bc18c        0x0 ./zint-master/frontend/getopt1.o
 .vfp11_veneer  0x000bc18c        0x0 ./zint-master/backend/2of5.o
 .vfp11_veneer  0x000bc18c        0x0 ./zint-master/backend/auspost.o
 .vfp11_veneer  0x000bc18c        0x0 ./zint-master/backend/aztec.o
 .vfp11_veneer  0x000bc18c        0x0 ./zint-master/backend/code.o
 .vfp11_veneer  0x000bc18c        0x0 ./zint-master/backend/code1.o
 .vfp11_veneer  0x000bc18c        0x0 ./zint-master/backend/code128.o
 .vfp11_veneer  0x000bc18c        0x0 ./zint-master/backend/code16k.o
 .vfp11_veneer  0x000bc18c        0x0 ./zint-master/backend/code49.o
 .vfp11_veneer  0x000bc18c        0x0 ./zint-master/backend/common.o
 .vfp11_veneer  0x000bc18c        0x0 ./zint-master/backend/composite.o
 .vfp11_veneer  0x000bc18c        0x0 ./zint-master/backend/dllversion.o
 .vfp11_veneer  0x000bc18c        0x0 ./zint-master/backend/dmatrix.o
 .vfp11_veneer  0x000bc18c        0x0 ./zint-master/backend/gridmtx.o
 .vfp11_veneer  0x000bc18c        0x0 ./zint-master/backend/gs1.o
 .vfp11_veneer  0x000bc18c        0x0 ./zint-master/backend/imail.o
 .vfp11_veneer  0x000bc18c        0x0 ./zint-master/backend/large.o
 .vfp11_veneer  0x000bc18c        0x0 ./zint-master/backend/library.o
 .vfp11_veneer  0x000bc18c        0x0 ./zint-master/backend/maxicode.o
 .vfp11_veneer  0x000bc18c        0x0 ./zint-master/backend/medical.o
 .vfp11_veneer  0x000bc18c        0x0 ./zint-master/backend/pdf417.o
 .vfp11_veneer  0x000bc18c        0x0 ./zint-master/backend/plessey.o
 .vfp11_veneer  0x000bc18c        0x0 ./zint-master/backend/png.o
 .vfp11_veneer  0x000bc18c        0x0 ./zint-master/backend/postal.o
 .vfp11_veneer  0x000bc18c        0x0 ./zint-master/backend/ps.o
 .vfp11_veneer  0x000bc18c        0x0 ./zint-master/backend/qr.o
 .vfp11_veneer  0x000bc18c        0x0 ./zint-master/backend/reedsol.o
 .vfp11_veneer  0x000bc18c        0x0 ./zint-master/backend/render.o
 .vfp11_veneer  0x000bc18c        0x0 ./zint-master/backend/rss.o
 .vfp11_veneer  0x000bc18c        0x0 ./zint-master/backend/svg.o
 .vfp11_veneer  0x000bc18c        0x0 ./zint-master/backend/telepen.o
 .vfp11_veneer  0x000bc18c        0x0 ./zint-master/backend/upcean.o
 .vfp11_veneer  0x000bc18c        0x0 ./src1/ContactSmartCard.o
 .vfp11_veneer  0x000bc18c        0x0 ./src1/JSON_checker.o
 .vfp11_veneer  0x000bc18c        0x0 ./src1/Z_report.o
 .vfp11_veneer  0x000bc18c        0x0 ./src1/cJSON.o
 .vfp11_veneer  0x000bc18c        0x0 ./src1/cardinfo.o
 .vfp11_veneer  0x000bc18c        0x0 ./src1/cl_smartcard_demo.o
 .vfp11_veneer  0x000bc18c        0x0 ./src1/configurations.o
 .vfp11_veneer  0x000bc18c        0x0 ./src1/desfire_test.o
 .vfp11_veneer  0x000bc18c        0x0 ./src1/display.o
 .vfp11_veneer  0x000bc18c        0x0 ./src1/fp_test.o
 .vfp11_veneer  0x000bc18c        0x0 ./src1/gprs_demo.o
 .vfp11_veneer  0x000bc18c        0x0 ./src1/jsonread.o
 .vfp11_veneer  0x000bc18c        0x0 ./src1/jsontest.o
 .vfp11_veneer  0x000bc18c        0x0 ./src1/keyboart.o
 .vfp11_veneer  0x000bc18c        0x0 ./src1/lcd.o
 .vfp11_veneer  0x000bc18c        0x0 ./src1/magneticstrip_demo.o
 .vfp11_veneer  0x000bc18c        0x0 ./src1/main.o
 .vfp11_veneer  0x000bc18c        0x0 ./src1/menu_back_forth.o
 .vfp11_veneer  0x000bc18c        0x0 ./src1/menu_hash.o
 .vfp11_veneer  0x000bc18c        0x0 ./src1/modem_demo.o
 .vfp11_veneer  0x000bc18c        0x0 ./src1/mutwol.o
 .vfp11_veneer  0x000bc18c        0x0 ./src1/network_f.o
 .vfp11_veneer  0x000bc18c        0x0 ./src1/postslib_extern.o
 .vfp11_veneer  0x000bc18c        0x0 ./src1/printer_demo.o
 .vfp11_veneer  0x000bc18c        0x0 ./src1/receipt.o
 .vfp11_veneer  0x000bc18c        0x0 ./src1/socket_demo.o
 .vfp11_veneer  0x000bc18c        0x0 ./src1/sql_functions.o
 .vfp11_veneer  0x000bc18c        0x0 ./src1/string_convert.o
 .vfp11_veneer  0x000bc18c        0x0 ./src1/touch.o
 .vfp11_veneer  0x000bc18c        0x0 ./src1/touch_demo.o
 .vfp11_veneer  0x000bc18c        0x0 ./src1/transaction.o
 .vfp11_veneer  0x000bc18c        0x0 ./src1/uart_demo.o
 .vfp11_veneer  0x000bc18c        0x0 ./src1/video.o
 .vfp11_veneer  0x000bc18c        0x0 ./src1/visualstring.o
 .vfp11_veneer  0x000bc18c        0x0 ./jsonfiles/arraylist.o
 .vfp11_veneer  0x000bc18c        0x0 ./jsonfiles/debug.o
 .vfp11_veneer  0x000bc18c        0x0 ./jsonfiles/json_object.o
 .vfp11_veneer  0x000bc18c        0x0 ./jsonfiles/json_object_iterator.o
 .vfp11_veneer  0x000bc18c        0x0 ./jsonfiles/json_tokener.o
 .vfp11_veneer  0x000bc18c        0x0 ./jsonfiles/json_util.o
 .vfp11_veneer  0x000bc18c        0x0 ./jsonfiles/linkhash.o
 .vfp11_veneer  0x000bc18c        0x0 ./jsonfiles/printbuf.o
 .vfp11_veneer  0x000bc18c        0x0 /home/pos/NEWPOS/sdk/lib/libz.so
 .vfp11_veneer  0x000bc18c        0x0 /home/pos/NEWPOS/FDx_SDK_PRO_LINUX_ARM11_OABI_3_7_1_REV922/lib/arm11_oabi/libsgfpamx.so
 .vfp11_veneer  0x000bc18c        0x0 /home/pos/NEWPOS/FDx_SDK_PRO_LINUX_ARM11_OABI_3_7_1_REV922/lib/arm11_oabi/libsgfdu04.so
 .vfp11_veneer  0x000bc18c        0x0 /home/pos/NEWPOS/FDx_SDK_PRO_LINUX_ARM11_OABI_3_7_1_REV922/lib/arm11_oabi/libsgfplib.so
 .vfp11_veneer  0x000bc18c        0x0 /home/pos/NEWPOS/sdk/lib/libusb.so
 .vfp11_veneer  0x000bc18c        0x0 /home/pos/NEWPOS/sdk/lib/libusbpp.so
 .vfp11_veneer  0x000bc18c        0x0 /home/pos/NEWPOS/sdk/lib/libsqlite3.so
 .vfp11_veneer  0x000bc18c        0x0 /home/pos/NEWPOS/sdk/lib/libcurl.so
 .vfp11_veneer  0x000bc18c        0x0 /home/pos/NEWPOS/sdk/lib/libts.so
 .vfp11_veneer  0x000bc18c        0x0 /home/pos/NEWPOS/sdk/lib/libssl.so
 .vfp11_veneer  0x000bc18c        0x0 /home/pos/NEWPOS/sdk/lib/libdirect.so
 .vfp11_veneer  0x000bc18c        0x0 /home/pos/NEWPOS/sdk/lib/libdirectfb.so
 .vfp11_veneer  0x000bc18c        0x0 /home/pos/NEWPOS/sdk/lib/libemv.so
 .vfp11_veneer  0x000bc18c        0x0 /home/pos/NEWPOS/sdk/lib/libiccard.so
 .vfp11_veneer  0x000bc18c        0x0 /home/pos/NEWPOS/sdk/lib/libnfc.so
 .vfp11_veneer  0x000bc18c        0x0 /home/pos/NEWPOS/sdk/lib/libpng.so
 .vfp11_veneer  0x000bc18c        0x0 /home/pos/NEWPOS/sdk/lib/libpos.so
 .vfp11_veneer  0x000bc18c        0x0 /home/pos/NEWPOS/sdk/lib/libcrypto.so
 .vfp11_veneer  0x000bc18c        0x0 /home/pos/NEWPOS/sdk/lib/libped.so
 .vfp11_veneer  0x000bc18c        0x0 /home/pos/NEWPOS/sdk/lib/libfusion.so
 .vfp11_veneer  0x000bc18c        0x0 /opt/compiler/glibc-oabi-toolchain-arm-generic/lib/gcc/arm-unknown-linux-gnu/4.3.4/libgcc.a(_udivsi3.o)
 .vfp11_veneer  0x000bc18c        0x0 /opt/compiler/glibc-oabi-toolchain-arm-generic/lib/gcc/arm-unknown-linux-gnu/4.3.4/libgcc.a(_divsi3.o)
 .vfp11_veneer  0x000bc18c        0x0 /opt/compiler/glibc-oabi-toolchain-arm-generic/lib/gcc/arm-unknown-linux-gnu/4.3.4/libgcc.a(_umodsi3.o)
 .vfp11_veneer  0x000bc18c        0x0 /opt/compiler/glibc-oabi-toolchain-arm-generic/lib/gcc/arm-unknown-linux-gnu/4.3.4/libgcc.a(_modsi3.o)
 .vfp11_veneer  0x000bc18c        0x0 /opt/compiler/glibc-oabi-toolchain-arm-generic/lib/gcc/arm-unknown-linux-gnu/4.3.4/libgcc.a(_dvmd_tls.o)
 .vfp11_veneer  0x000bc18c        0x0 /opt/compiler/glibc-oabi-toolchain-arm-generic/lib/gcc/arm-unknown-linux-gnu/4.3.4/libgcc.a(_addsubdf3.o)
 .vfp11_veneer  0x000bc18c        0x0 /opt/compiler/glibc-oabi-toolchain-arm-generic/lib/gcc/arm-unknown-linux-gnu/4.3.4/libgcc.a(_muldivdf3.o)
 .vfp11_veneer  0x000bc18c        0x0 /opt/compiler/glibc-oabi-toolchain-arm-generic/lib/gcc/arm-unknown-linux-gnu/4.3.4/libgcc.a(_cmpdf2.o)
 .vfp11_veneer  0x000bc18c        0x0 /opt/compiler/glibc-oabi-toolchain-arm-generic/lib/gcc/arm-unknown-linux-gnu/4.3.4/libgcc.a(_fixdfsi.o)
 .vfp11_veneer  0x000bc18c        0x0 /opt/compiler/glibc-oabi-toolchain-arm-generic/lib/gcc/arm-unknown-linux-gnu/4.3.4/libgcc.a(_fixunsdfsi.o)
 .vfp11_veneer  0x000bc18c        0x0 /opt/compiler/glibc-oabi-toolchain-arm-generic/lib/gcc/arm-unknown-linux-gnu/4.3.4/libgcc.a(_truncdfsf2.o)
 .vfp11_veneer  0x000bc18c        0x0 /opt/compiler/glibc-oabi-toolchain-arm-generic/lib/gcc/arm-unknown-linux-gnu/4.3.4/libgcc.a(_addsubsf3.o)
 .vfp11_veneer  0x000bc18c        0x0 /opt/compiler/glibc-oabi-toolchain-arm-generic/lib/gcc/arm-unknown-linux-gnu/4.3.4/libgcc.a(_muldivsf3.o)
 .vfp11_veneer  0x000bc18c        0x0 /opt/compiler/glibc-oabi-toolchain-arm-generic/lib/gcc/arm-unknown-linux-gnu/4.3.4/libgcc.a(_cmpsf2.o)
 .vfp11_veneer  0x000bc18c        0x0 /opt/compiler/glibc-oabi-toolchain-arm-generic/lib/gcc/arm-unknown-linux-gnu/4.3.4/libgcc.a(_fixsfsi.o)
 .vfp11_veneer  0x000bc18c        0x0 /opt/compiler/glibc-oabi-toolchain-arm-generic/lib/gcc/arm-unknown-linux-gnu/4.3.4/libgcc.a(_fixunssfsi.o)
 .vfp11_veneer  0x000bc18c        0x0 /opt/compiler/glibc-oabi-toolchain-arm-generic/lib/gcc/arm-unknown-linux-gnu/4.3.4/libgcc.a(_fixdfdi.o)
 .vfp11_veneer  0x000bc18c        0x0 /opt/compiler/glibc-oabi-toolchain-arm-generic/lib/gcc/arm-unknown-linux-gnu/4.3.4/libgcc.a(_fixunsdfdi.o)
 .vfp11_veneer  0x000bc18c        0x0 /opt/compiler/glibc-oabi-toolchain-arm-generic/lib/gcc/arm-unknown-linux-gnu/4.3.4/libgcc.a(_udivdi3.o)
 .vfp11_veneer  0x000bc18c        0x0 /opt/compiler/glibc-oabi-toolchain-arm-generic/lib/gcc/arm-unknown-linux-gnu/4.3.4/libgcc.a(_umoddi3.o)
 .vfp11_veneer  0x000bc18c        0x0 /opt/compiler/glibc-oabi-toolchain-arm-generic/lib/gcc/arm-unknown-linux-gnu/4.3.4/libgcc.a(_clz.o)
 .vfp11_veneer  0x000bc18c        0x0 /opt/compiler/glibc-oabi-toolchain-arm-generic/lib/gcc/arm-unknown-linux-gnu/4.3.4/../../../../arm-unknown-linux-gnu/lib/libgcc_s.so
 .vfp11_veneer  0x000bc18c        0x0 /opt/compiler/glibc-oabi-toolchain-arm-generic/arm-unknown-linux-gnu//sys-root/lib/libc.so.6
 .vfp11_veneer  0x000bc18c        0x0 /opt/compiler/glibc-oabi-toolchain-arm-generic/arm-unknown-linux-gnu//sys-root/usr/lib/libc_nonshared.a(elf-init.oS)
 .vfp11_veneer  0x000bc18c        0x0 /opt/compiler/glibc-oabi-toolchain-arm-generic/arm-unknown-linux-gnu//sys-root/lib/ld-linux.so.2
 .vfp11_veneer  0x000bc18c        0x0 /opt/compiler/glibc-oabi-toolchain-arm-generic/lib/gcc/arm-unknown-linux-gnu/4.3.4/../../../../arm-unknown-linux-gnu/lib/libgcc_s.so
 .vfp11_veneer  0x000bc18c        0x0 /opt/compiler/glibc-oabi-toolchain-arm-generic/lib/gcc/arm-unknown-linux-gnu/4.3.4/crtend.o
 .vfp11_veneer  0x000bc18c        0x0 /opt/compiler/glibc-oabi-toolchain-arm-generic/arm-unknown-linux-gnu//sys-root/usr/lib/crtn.o
 *(.v4_bx)
 .v4_bx         0x000bc18c        0x0 /opt/compiler/glibc-oabi-toolchain-arm-generic/arm-unknown-linux-gnu//sys-root/usr/lib/crt1.o
 .v4_bx         0x000bc18c        0x0 /opt/compiler/glibc-oabi-toolchain-arm-generic/arm-unknown-linux-gnu//sys-root/usr/lib/crti.o
 .v4_bx         0x000bc18c        0x0 /opt/compiler/glibc-oabi-toolchain-arm-generic/lib/gcc/arm-unknown-linux-gnu/4.3.4/crtbegin.o
 .v4_bx         0x000bc18c        0x0 ./zint-master/frontend/getopt.o
 .v4_bx         0x000bc18c        0x0 ./zint-master/frontend/getopt1.o
 .v4_bx         0x000bc18c        0x0 ./zint-master/backend/2of5.o
 .v4_bx         0x000bc18c        0x0 ./zint-master/backend/auspost.o
 .v4_bx         0x000bc18c        0x0 ./zint-master/backend/aztec.o
 .v4_bx         0x000bc18c        0x0 ./zint-master/backend/code.o
 .v4_bx         0x000bc18c        0x0 ./zint-master/backend/code1.o
 .v4_bx         0x000bc18c        0x0 ./zint-master/backend/code128.o
 .v4_bx         0x000bc18c        0x0 ./zint-master/backend/code16k.o
 .v4_bx         0x000bc18c        0x0 ./zint-master/backend/code49.o
 .v4_bx         0x000bc18c        0x0 ./zint-master/backend/common.o
 .v4_bx         0x000bc18c        0x0 ./zint-master/backend/composite.o
 .v4_bx         0x000bc18c        0x0 ./zint-master/backend/dllversion.o
 .v4_bx         0x000bc18c        0x0 ./zint-master/backend/dmatrix.o
 .v4_bx         0x000bc18c        0x0 ./zint-master/backend/gridmtx.o
 .v4_bx         0x000bc18c        0x0 ./zint-master/backend/gs1.o
 .v4_bx         0x000bc18c        0x0 ./zint-master/backend/imail.o
 .v4_bx         0x000bc18c        0x0 ./zint-master/backend/large.o
 .v4_bx         0x000bc18c        0x0 ./zint-master/backend/library.o
 .v4_bx         0x000bc18c        0x0 ./zint-master/backend/maxicode.o
 .v4_bx         0x000bc18c        0x0 ./zint-master/backend/medical.o
 .v4_bx         0x000bc18c        0x0 ./zint-master/backend/pdf417.o
 .v4_bx         0x000bc18c        0x0 ./zint-master/backend/plessey.o
 .v4_bx         0x000bc18c        0x0 ./zint-master/backend/png.o
 .v4_bx         0x000bc18c        0x0 ./zint-master/backend/postal.o
 .v4_bx         0x000bc18c        0x0 ./zint-master/backend/ps.o
 .v4_bx         0x000bc18c        0x0 ./zint-master/backend/qr.o
 .v4_bx         0x000bc18c        0x0 ./zint-master/backend/reedsol.o
 .v4_bx         0x000bc18c        0x0 ./zint-master/backend/render.o
 .v4_bx         0x000bc18c        0x0 ./zint-master/backend/rss.o
 .v4_bx         0x000bc18c        0x0 ./zint-master/backend/svg.o
 .v4_bx         0x000bc18c        0x0 ./zint-master/backend/telepen.o
 .v4_bx         0x000bc18c        0x0 ./zint-master/backend/upcean.o
 .v4_bx         0x000bc18c        0x0 ./src1/ContactSmartCard.o
 .v4_bx         0x000bc18c        0x0 ./src1/JSON_checker.o
 .v4_bx         0x000bc18c        0x0 ./src1/Z_report.o
 .v4_bx         0x000bc18c        0x0 ./src1/cJSON.o
 .v4_bx         0x000bc18c        0x0 ./src1/cardinfo.o
 .v4_bx         0x000bc18c        0x0 ./src1/cl_smartcard_demo.o
 .v4_bx         0x000bc18c        0x0 ./src1/configurations.o
 .v4_bx         0x000bc18c        0x0 ./src1/desfire_test.o
 .v4_bx         0x000bc18c        0x0 ./src1/display.o
 .v4_bx         0x000bc18c        0x0 ./src1/fp_test.o
 .v4_bx         0x000bc18c        0x0 ./src1/gprs_demo.o
 .v4_bx         0x000bc18c        0x0 ./src1/jsonread.o
 .v4_bx         0x000bc18c        0x0 ./src1/jsontest.o
 .v4_bx         0x000bc18c        0x0 ./src1/keyboart.o
 .v4_bx         0x000bc18c        0x0 ./src1/lcd.o
 .v4_bx         0x000bc18c        0x0 ./src1/magneticstrip_demo.o
 .v4_bx         0x000bc18c        0x0 ./src1/main.o
 .v4_bx         0x000bc18c        0x0 ./src1/menu_back_forth.o
 .v4_bx         0x000bc18c        0x0 ./src1/menu_hash.o
 .v4_bx         0x000bc18c        0x0 ./src1/modem_demo.o
 .v4_bx         0x000bc18c        0x0 ./src1/mutwol.o
 .v4_bx         0x000bc18c        0x0 ./src1/network_f.o
 .v4_bx         0x000bc18c        0x0 ./src1/postslib_extern.o
 .v4_bx         0x000bc18c        0x0 ./src1/printer_demo.o
 .v4_bx         0x000bc18c        0x0 ./src1/receipt.o
 .v4_bx         0x000bc18c        0x0 ./src1/socket_demo.o
 .v4_bx         0x000bc18c        0x0 ./src1/sql_functions.o
 .v4_bx         0x000bc18c        0x0 ./src1/string_convert.o
 .v4_bx         0x000bc18c        0x0 ./src1/touch.o
 .v4_bx         0x000bc18c        0x0 ./src1/touch_demo.o
 .v4_bx         0x000bc18c        0x0 ./src1/transaction.o
 .v4_bx         0x000bc18c        0x0 ./src1/uart_demo.o
 .v4_bx         0x000bc18c        0x0 ./src1/video.o
 .v4_bx         0x000bc18c        0x0 ./src1/visualstring.o
 .v4_bx         0x000bc18c        0x0 ./jsonfiles/arraylist.o
 .v4_bx         0x000bc18c        0x0 ./jsonfiles/debug.o
 .v4_bx         0x000bc18c        0x0 ./jsonfiles/json_object.o
 .v4_bx         0x000bc18c        0x0 ./jsonfiles/json_object_iterator.o
 .v4_bx         0x000bc18c        0x0 ./jsonfiles/json_tokener.o
 .v4_bx         0x000bc18c        0x0 ./jsonfiles/json_util.o
 .v4_bx         0x000bc18c        0x0 ./jsonfiles/linkhash.o
 .v4_bx         0x000bc18c        0x0 ./jsonfiles/printbuf.o
 .v4_bx         0x000bc18c        0x0 /home/pos/NEWPOS/sdk/lib/libz.so
 .v4_bx         0x000bc18c        0x0 /home/pos/NEWPOS/FDx_SDK_PRO_LINUX_ARM11_OABI_3_7_1_REV922/lib/arm11_oabi/libsgfpamx.so
 .v4_bx         0x000bc18c        0x0 /home/pos/NEWPOS/FDx_SDK_PRO_LINUX_ARM11_OABI_3_7_1_REV922/lib/arm11_oabi/libsgfdu04.so
 .v4_bx         0x000bc18c        0x0 /home/pos/NEWPOS/FDx_SDK_PRO_LINUX_ARM11_OABI_3_7_1_REV922/lib/arm11_oabi/libsgfplib.so
 .v4_bx         0x000bc18c        0x0 /home/pos/NEWPOS/sdk/lib/libusb.so
 .v4_bx         0x000bc18c        0x0 /home/pos/NEWPOS/sdk/lib/libusbpp.so
 .v4_bx         0x000bc18c        0x0 /home/pos/NEWPOS/sdk/lib/libsqlite3.so
 .v4_bx         0x000bc18c        0x0 /home/pos/NEWPOS/sdk/lib/libcurl.so
 .v4_bx         0x000bc18c        0x0 /home/pos/NEWPOS/sdk/lib/libts.so
 .v4_bx         0x000bc18c        0x0 /home/pos/NEWPOS/sdk/lib/libssl.so
 .v4_bx         0x000bc18c        0x0 /home/pos/NEWPOS/sdk/lib/libdirect.so
 .v4_bx         0x000bc18c        0x0 /home/pos/NEWPOS/sdk/lib/libdirectfb.so
 .v4_bx         0x000bc18c        0x0 /home/pos/NEWPOS/sdk/lib/libemv.so
 .v4_bx         0x000bc18c        0x0 /home/pos/NEWPOS/sdk/lib/libiccard.so
 .v4_bx         0x000bc18c        0x0 /home/pos/NEWPOS/sdk/lib/libnfc.so
 .v4_bx         0x000bc18c        0x0 /home/pos/NEWPOS/sdk/lib/libpng.so
 .v4_bx         0x000bc18c        0x0 /home/pos/NEWPOS/sdk/lib/libpos.so
 .v4_bx         0x000bc18c        0x0 /home/pos/NEWPOS/sdk/lib/libcrypto.so
 .v4_bx         0x000bc18c        0x0 /home/pos/NEWPOS/sdk/lib/libped.so
 .v4_bx         0x000bc18c        0x0 /home/pos/NEWPOS/sdk/lib/libfusion.so
 .v4_bx         0x000bc18c        0x0 /opt/compiler/glibc-oabi-toolchain-arm-generic/lib/gcc/arm-unknown-linux-gnu/4.3.4/libgcc.a(_udivsi3.o)
 .v4_bx         0x000bc18c        0x0 /opt/compiler/glibc-oabi-toolchain-arm-generic/lib/gcc/arm-unknown-linux-gnu/4.3.4/libgcc.a(_divsi3.o)
 .v4_bx         0x000bc18c        0x0 /opt/compiler/glibc-oabi-toolchain-arm-generic/lib/gcc/arm-unknown-linux-gnu/4.3.4/libgcc.a(_umodsi3.o)
 .v4_bx         0x000bc18c        0x0 /opt/compiler/glibc-oabi-toolchain-arm-generic/lib/gcc/arm-unknown-linux-gnu/4.3.4/libgcc.a(_modsi3.o)
 .v4_bx         0x000bc18c        0x0 /opt/compiler/glibc-oabi-toolchain-arm-generic/lib/gcc/arm-unknown-linux-gnu/4.3.4/libgcc.a(_dvmd_tls.o)
 .v4_bx         0x000bc18c        0x0 /opt/compiler/glibc-oabi-toolchain-arm-generic/lib/gcc/arm-unknown-linux-gnu/4.3.4/libgcc.a(_addsubdf3.o)
 .v4_bx         0x000bc18c        0x0 /opt/compiler/glibc-oabi-toolchain-arm-generic/lib/gcc/arm-unknown-linux-gnu/4.3.4/libgcc.a(_muldivdf3.o)
 .v4_bx         0x000bc18c        0x0 /opt/compiler/glibc-oabi-toolchain-arm-generic/lib/gcc/arm-unknown-linux-gnu/4.3.4/libgcc.a(_cmpdf2.o)
 .v4_bx         0x000bc18c        0x0 /opt/compiler/glibc-oabi-toolchain-arm-generic/lib/gcc/arm-unknown-linux-gnu/4.3.4/libgcc.a(_fixdfsi.o)
 .v4_bx         0x000bc18c        0x0 /opt/compiler/glibc-oabi-toolchain-arm-generic/lib/gcc/arm-unknown-linux-gnu/4.3.4/libgcc.a(_fixunsdfsi.o)
 .v4_bx         0x000bc18c        0x0 /opt/compiler/glibc-oabi-toolchain-arm-generic/lib/gcc/arm-unknown-linux-gnu/4.3.4/libgcc.a(_truncdfsf2.o)
 .v4_bx         0x000bc18c        0x0 /opt/compiler/glibc-oabi-toolchain-arm-generic/lib/gcc/arm-unknown-linux-gnu/4.3.4/libgcc.a(_addsubsf3.o)
 .v4_bx         0x000bc18c        0x0 /opt/compiler/glibc-oabi-toolchain-arm-generic/lib/gcc/arm-unknown-linux-gnu/4.3.4/libgcc.a(_muldivsf3.o)
 .v4_bx         0x000bc18c        0x0 /opt/compiler/glibc-oabi-toolchain-arm-generic/lib/gcc/arm-unknown-linux-gnu/4.3.4/libgcc.a(_cmpsf2.o)
 .v4_bx         0x000bc18c        0x0 /opt/compiler/glibc-oabi-toolchain-arm-generic/lib/gcc/arm-unknown-linux-gnu/4.3.4/libgcc.a(_fixsfsi.o)
 .v4_bx         0x000bc18c        0x0 /opt/compiler/glibc-oabi-toolchain-arm-generic/lib/gcc/arm-unknown-linux-gnu/4.3.4/libgcc.a(_fixunssfsi.o)
 .v4_bx         0x000bc18c        0x0 /opt/compiler/glibc-oabi-toolchain-arm-generic/lib/gcc/arm-unknown-linux-gnu/4.3.4/libgcc.a(_fixdfdi.o)
 .v4_bx         0x000bc18c        0x0 /opt/compiler/glibc-oabi-toolchain-arm-generic/lib/gcc/arm-unknown-linux-gnu/4.3.4/libgcc.a(_fixunsdfdi.o)
 .v4_bx         0x000bc18c        0x0 /opt/compiler/glibc-oabi-toolchain-arm-generic/lib/gcc/arm-unknown-linux-gnu/4.3.4/libgcc.a(_udivdi3.o)
 .v4_bx         0x000bc18c        0x0 /opt/compiler/glibc-oabi-toolchain-arm-generic/lib/gcc/arm-unknown-linux-gnu/4.3.4/libgcc.a(_umoddi3.o)
 .v4_bx         0x000bc18c        0x0 /opt/compiler/glibc-oabi-toolchain-arm-generic/lib/gcc/arm-unknown-linux-gnu/4.3.4/libgcc.a(_clz.o)
 .v4_bx         0x000bc18c        0x0 /opt/compiler/glibc-oabi-toolchain-arm-generic/lib/gcc/arm-unknown-linux-gnu/4.3.4/../../../../arm-unknown-linux-gnu/lib/libgcc_s.so
 .v4_bx         0x000bc18c        0x0 /opt/compiler/glibc-oabi-toolchain-arm-generic/arm-unknown-linux-gnu//sys-root/lib/libc.so.6
 .v4_bx         0x000bc18c        0x0 /opt/compiler/glibc-oabi-toolchain-arm-generic/arm-unknown-linux-gnu//sys-root/usr/lib/libc_nonshared.a(elf-init.oS)
 .v4_bx         0x000bc18c        0x0 /opt/compiler/glibc-oabi-toolchain-arm-generic/arm-unknown-linux-gnu//sys-root/lib/ld-linux.so.2
 .v4_bx         0x000bc18c        0x0 /opt/compiler/glibc-oabi-toolchain-arm-generic/lib/gcc/arm-unknown-linux-gnu/4.3.4/../../../../arm-unknown-linux-gnu/lib/libgcc_s.so
 .v4_bx         0x000bc18c        0x0 /opt/compiler/glibc-oabi-toolchain-arm-generic/lib/gcc/arm-unknown-linux-gnu/4.3.4/crtend.o
 .v4_bx         0x000bc18c        0x0 /opt/compiler/glibc-oabi-toolchain-arm-generic/arm-unknown-linux-gnu//sys-root/usr/lib/crtn.o

.fini           0x000bc18c        0xc
 *(.fini)
 .fini          0x000bc18c        0x4 /opt/compiler/glibc-oabi-toolchain-arm-generic/arm-unknown-linux-gnu//sys-root/usr/lib/crti.o
                0x000bc18c                _fini
 .fini          0x000bc190        0x4 /opt/compiler/glibc-oabi-toolchain-arm-generic/lib/gcc/arm-unknown-linux-gnu/4.3.4/crtbegin.o
 .fini          0x000bc194        0x4 /opt/compiler/glibc-oabi-toolchain-arm-generic/arm-unknown-linux-gnu//sys-root/usr/lib/crtn.o
                0x000bc198                PROVIDE (__etext, .)
                0x000bc198                PROVIDE (_etext, .)
                0x000bc198                PROVIDE (etext, .)

.rodata         0x000bc198    0x21324
 *(.rodata .rodata.* .gnu.linkonce.r.*)
 .rodata.cst4   0x000bc198        0x4 /opt/compiler/glibc-oabi-toolchain-arm-generic/arm-unknown-linux-gnu//sys-root/usr/lib/crt1.o
                0x000bc198                _IO_stdin_used
 .rodata        0x000bc19c      0x1a4 ./zint-master/backend/2of5.o
 .rodata        0x000bc340      0x20c ./zint-master/backend/auspost.o
 .rodata        0x000bc54c      0x454 ./zint-master/backend/aztec.o
 .rodata        0x000bc9a0      0x860 ./zint-master/backend/code.o
 .rodata        0x000bd200       0x90 ./zint-master/backend/code1.o
 .rodata        0x000bd290      0x3f4 ./zint-master/backend/code128.o
 .rodata        0x000bd684      0x3e4 ./zint-master/backend/code16k.o
 .rodata        0x000bda68     0xe3c8 ./zint-master/backend/code49.o
 .rodata        0x000cbe30       0xc0 ./zint-master/backend/common.o
 .rodata        0x000cbef0     0x325c ./zint-master/backend/composite.o
 .rodata        0x000cf14c      0x180 ./zint-master/backend/dmatrix.o
 .rodata        0x000cf2cc      0x2ac ./zint-master/backend/gridmtx.o
 .rodata        0x000cf578      0x1d4 ./zint-master/backend/gs1.o
 .rodata        0x000cf74c       0x8c ./zint-master/backend/imail.o
 .rodata        0x000cf7d8      0x2e4 ./zint-master/backend/library.o
 .rodata        0x000cfabc       0x48 ./zint-master/backend/maxicode.o
 .rodata        0x000cfb04      0x19c ./zint-master/backend/medical.o
 .rodata        0x000cfca0     0x334c ./zint-master/backend/pdf417.o
 .rodata        0x000d2fec      0x1cc ./zint-master/backend/plessey.o
 .rodata        0x000d31b8      0x158 ./zint-master/backend/png.o
 .rodata        0x000d3310      0x464 ./zint-master/backend/postal.o
 .rodata        0x000d3774      0x444 ./zint-master/backend/ps.o
 .rodata        0x000d3bb8      0x374 ./zint-master/backend/qr.o
 .rodata        0x000d3f2c        0x8 ./zint-master/backend/render.o
 .rodata        0x000d3f34      0x448 ./zint-master/backend/rss.o
 .rodata        0x000d437c      0x38c ./zint-master/backend/svg.o
 .rodata        0x000d4708      0x720 ./zint-master/backend/telepen.o
 .rodata        0x000d4e28      0x360 ./zint-master/backend/upcean.o
 .rodata        0x000d5188       0xbc ./src1/ContactSmartCard.o
 .rodata        0x000d5244       0x4c ./src1/cJSON.o
 .rodata        0x000d5290      0x428 ./src1/cardinfo.o
 .rodata        0x000d56b8      0x108 ./src1/cl_smartcard_demo.o
 .rodata        0x000d57c0      0xae8 ./src1/desfire_test.o
 .rodata        0x000d62a8      0x1cc ./src1/display.o
 .rodata        0x000d6474      0x4c0 ./src1/fp_test.o
 .rodata        0x000d6934      0x704 ./src1/gprs_demo.o
 .rodata        0x000d7038      0xef4 ./src1/jsonread.o
 .rodata        0x000d7f2c       0x80 ./src1/jsontest.o
 .rodata        0x000d7fac      0xa68 ./src1/keyboart.o
                0x000d8084                transmenu
 .rodata        0x000d8a14      0x26c ./src1/lcd.o
 .rodata        0x000d8c80       0x8c ./src1/magneticstrip_demo.o
 .rodata        0x000d8d0c      0x854 ./src1/main.o
                0x000d9284                menu1
                0x000d8d0c                menu
 .rodata        0x000d9560       0x6c ./src1/menu_back_forth.o
 .rodata        0x000d95cc       0x34 ./src1/menu_hash.o
 .rodata        0x000d9600       0xcc ./src1/modem_demo.o
 .rodata        0x000d96cc      0x3d0 ./src1/mutwol.o
 .rodata        0x000d9a9c      0x9c4 ./src1/network_f.o
 .rodata        0x000da460       0x38 ./src1/postslib_extern.o
 .rodata        0x000da498      0xa3c ./src1/printer_demo.o
 .rodata        0x000daed4       0x9c ./src1/receipt.o
 .rodata        0x000daf70      0x2d8 ./src1/socket_demo.o
 .rodata        0x000db248     0x18e8 ./src1/sql_functions.o
 .rodata        0x000dcb30       0x10 ./src1/string_convert.o
 .rodata        0x000dcb40       0x1c ./src1/touch.o
 .rodata        0x000dcb5c      0x15c ./src1/touch_demo.o
 .rodata        0x000dccb8       0x64 ./src1/uart_demo.o
 .rodata        0x000dcd1c      0x278 ./src1/video.o
 .rodata        0x000dcf94       0xa8 ./jsonfiles/json_object.o
 .rodata        0x000dd03c      0x208 ./jsonfiles/json_tokener.o
 .rodata        0x000dd244      0x158 ./jsonfiles/json_util.o
 .rodata        0x000dd39c       0x20 ./jsonfiles/linkhash.o
 .rodata        0x000dd3bc      0x100 /opt/compiler/glibc-oabi-toolchain-arm-generic/lib/gcc/arm-unknown-linux-gnu/4.3.4/libgcc.a(_clz.o)
                0x000dd3bc                __clz_tab

.rodata1
 *(.rodata1)

.eh_frame_hdr
 *(.eh_frame_hdr)

.eh_frame       0x000dd4bc        0x4
 *(.eh_frame)
 .eh_frame      0x000dd4bc        0x4 /opt/compiler/glibc-oabi-toolchain-arm-generic/lib/gcc/arm-unknown-linux-gnu/4.3.4/crtend.o

.gcc_except_table
 *(.gcc_except_table .gcc_except_table.*)
                0x000dd4c0                . = (ALIGN (0x8000) - ((0x8000 - .) & 0x7fff))
                0x000e5e74                . = (0x8000 DATA_SEGMENT_ALIGN 0x1000)

.eh_frame
 *(.eh_frame)

.gcc_except_table
 *(.gcc_except_table .gcc_except_table.*)

.tdata
 *(.tdata .tdata.* .gnu.linkonce.td.*)

.tbss
 *(.tbss .tbss.* .gnu.linkonce.tb.*)
 *(.tcommon)

.preinit_array  0x000e5e74        0x0
                0x000e5e74                PROVIDE (__preinit_array_start, .)
 *(.preinit_array)
                0x000e5e74                PROVIDE (__preinit_array_end, .)

.init_array     0x000e5e74        0x0
                0x000e5e74                PROVIDE (__init_array_start, .)
 *(SORT(.init_array.*))
 *(.init_array)
                0x000e5e74                PROVIDE (__init_array_end, .)

.fini_array     0x000e5e74        0x0
                0x000e5e74                PROVIDE (__fini_array_start, .)
 *(.fini_array)
 *(SORT(.fini_array.*))
                0x000e5e74                PROVIDE (__fini_array_end, .)

.ctors          0x000e5e74        0x8
 *crtbegin.o(.ctors)
 .ctors         0x000e5e74        0x4 /opt/compiler/glibc-oabi-toolchain-arm-generic/lib/gcc/arm-unknown-linux-gnu/4.3.4/crtbegin.o
 *crtbegin?.o(.ctors)
 *(EXCLUDE_FILE(*crtend?.o *crtend.o) .ctors)
 *(SORT(.ctors.*))
 *(.ctors)
 .ctors         0x000e5e78        0x4 /opt/compiler/glibc-oabi-toolchain-arm-generic/lib/gcc/arm-unknown-linux-gnu/4.3.4/crtend.o

.dtors          0x000e5e7c        0x8
 *crtbegin.o(.dtors)
 .dtors         0x000e5e7c        0x4 /opt/compiler/glibc-oabi-toolchain-arm-generic/lib/gcc/arm-unknown-linux-gnu/4.3.4/crtbegin.o
 *crtbegin?.o(.dtors)
 *(EXCLUDE_FILE(*crtend?.o *crtend.o) .dtors)
 *(SORT(.dtors.*))
 *(.dtors)
 .dtors         0x000e5e80        0x4 /opt/compiler/glibc-oabi-toolchain-arm-generic/lib/gcc/arm-unknown-linux-gnu/4.3.4/crtend.o
                0x000e5e80                __DTOR_END__

.jcr            0x000e5e84        0x4
 *(.jcr)
 .jcr           0x000e5e84        0x0 /opt/compiler/glibc-oabi-toolchain-arm-generic/lib/gcc/arm-unknown-linux-gnu/4.3.4/crtbegin.o
 .jcr           0x000e5e84        0x4 /opt/compiler/glibc-oabi-toolchain-arm-generic/lib/gcc/arm-unknown-linux-gnu/4.3.4/crtend.o

.data.rel.ro
 *(.data.rel.ro.local* .gnu.linkonce.d.rel.ro.local.*)
 *(.data.rel.ro* .gnu.linkonce.d.rel.ro.*)

.dynamic        0x000e5e88      0x178
 *(.dynamic)
 .dynamic       0x000e5e88      0x178 /opt/compiler/glibc-oabi-toolchain-arm-generic/arm-unknown-linux-gnu//sys-root/usr/lib/crti.o
                0x000e5e88                _DYNAMIC
                0x000e6000                . = (. DATA_SEGMENT_RELRO_END 0x0)

.got            0x000e6000      0x3ac
 *(.got.plt)
 .got.plt       0x000e6000      0x3a4 /opt/compiler/glibc-oabi-toolchain-arm-generic/arm-unknown-linux-gnu//sys-root/usr/lib/crti.o
                0x000e6000                _GLOBAL_OFFSET_TABLE_
 *(.got)
 .got           0x000e63a4        0x8 /opt/compiler/glibc-oabi-toolchain-arm-generic/arm-unknown-linux-gnu//sys-root/usr/lib/crti.o

.data           0x000e63ac    0x5ef98
                0x000e63ac                __data_start = .
 *(.data .data.* .gnu.linkonce.d.*)
 .data          0x000e63ac        0x4 /opt/compiler/glibc-oabi-toolchain-arm-generic/arm-unknown-linux-gnu//sys-root/usr/lib/crt1.o
                0x000e63ac                data_start
 .data          0x000e63b0        0x0 /opt/compiler/glibc-oabi-toolchain-arm-generic/arm-unknown-linux-gnu//sys-root/usr/lib/crti.o
 .data          0x000e63b0        0x8 /opt/compiler/glibc-oabi-toolchain-arm-generic/lib/gcc/arm-unknown-linux-gnu/4.3.4/crtbegin.o
                0x000e63b4                __dso_handle
 .data          0x000e63b8        0x0 ./zint-master/frontend/getopt.o
 .data          0x000e63b8        0x0 ./zint-master/frontend/getopt1.o
 .data          0x000e63b8       0x78 ./zint-master/backend/2of5.o
 .data          0x000e6430      0x228 ./zint-master/backend/auspost.o
 .data          0x000e6658    0x177e8 ./zint-master/backend/aztec.o
                0x000fd800                AztecSymbolChar
                0x000fd600                AztecCodeSet
 .data          0x000fde40      0x594 ./zint-master/backend/code.o
 .data          0x000fe3d4      0x920 ./zint-master/backend/code1.o
 .data          0x000fecf4      0x1ac ./zint-master/backend/code128.o
 .data          0x000feea0      0x24c ./zint-master/backend/code16k.o
 .data          0x000ff0ec     0x4ea8 ./zint-master/backend/code49.o
                0x000ff2ec                c49_x_weight
                0x000ff3ec                c49_z_weight
                0x000ff36c                c49_y_weight
 .data          0x00103f94        0x0 ./zint-master/backend/common.o
 .data          0x00103f94     0x4a34 ./zint-master/backend/composite.o
 .data          0x001089c8        0x0 ./zint-master/backend/dllversion.o
 .data          0x001089c8      0xbc0 ./zint-master/backend/dmatrix.o
 .data          0x00109588     0xfa98 ./zint-master/backend/gridmtx.o
                0x0010a778                gb2312_lookup
 .data          0x00119020        0x0 ./zint-master/backend/gs1.o
 .data          0x00119020      0xd04 ./zint-master/backend/imail.o
 .data          0x00119d24       0x50 ./zint-master/backend/large.o
 .data          0x00119d74        0x0 ./zint-master/backend/library.o
 .data          0x00119d74     0x1778 ./zint-master/backend/maxicode.o
                0x0011b0ec                maxiSymbolChar
                0x0011acec                maxiCodeSet
 .data          0x0011b4ec       0x50 ./zint-master/backend/medical.o
 .data          0x0011b53c     0x4bb8 ./zint-master/backend/pdf417.o
 .data          0x001200f4       0x74 ./zint-master/backend/plessey.o
 .data          0x00120168    0x13640 ./zint-master/backend/png.o
 .data          0x001337a8      0x20c ./zint-master/backend/postal.o
 .data          0x001339b4        0x0 ./zint-master/backend/ps.o
 .data          0x001339b4     0xe294 ./zint-master/backend/qr.o
                0x001339b4                sjis_lookup
 .data          0x00141c48        0x0 ./zint-master/backend/reedsol.o
 .data          0x00141c48        0x0 ./zint-master/backend/render.o
 .data          0x00141c48     0x20f0 ./zint-master/backend/rss.o
 .data          0x00143d38        0x0 ./zint-master/backend/svg.o
 .data          0x00143d38      0x1fc ./zint-master/backend/telepen.o
 .data          0x00143f34      0x100 ./zint-master/backend/upcean.o
 .data          0x00144034        0x0 ./src1/ContactSmartCard.o
 .data          0x00144034     0x1088 ./src1/JSON_checker.o
 .data          0x001450bc        0x0 ./src1/Z_report.o
 .data          0x001450bc        0x8 ./src1/cJSON.o
 .data          0x001450c4        0x0 ./src1/cardinfo.o
 .data          0x001450c4        0x0 ./src1/cl_smartcard_demo.o
 .data          0x001450c4        0x0 ./src1/configurations.o
 .data          0x001450c4        0x0 ./src1/desfire_test.o
 .data          0x001450c4        0x0 ./src1/display.o
 .data          0x001450c4        0x0 ./src1/fp_test.o
 .data          0x001450c4      0x14c ./src1/gprs_demo.o
                0x001450c4                starting_time
                0x001450c8                gprs_chat_file
 .data          0x00145210       0x2c ./src1/jsonread.o
                0x00145214                menu_name
                0x00145210                main_menu_string
 .data          0x0014523c        0x0 ./src1/jsontest.o
 .data          0x0014523c       0x78 ./src1/keyboart.o
 .data          0x001452b4        0xc ./src1/lcd.o
 .data          0x001452c0        0x0 ./src1/magneticstrip_demo.o
 .data          0x001452c0        0x0 ./src1/main.o
 .data          0x001452c0        0x0 ./src1/menu_back_forth.o
 .data          0x001452c0        0x0 ./src1/menu_hash.o
 .data          0x001452c0        0x0 ./src1/modem_demo.o
 .data          0x001452c0        0x0 ./src1/mutwol.o
 .data          0x001452c0        0x0 ./src1/network_f.o
 .data          0x001452c0        0x0 ./src1/postslib_extern.o
 .data          0x001452c0        0x8 ./src1/printer_demo.o
                0x001452c4                filenames
                0x001452c0                filename
 .data          0x001452c8        0x0 ./src1/receipt.o
 .data          0x001452c8        0x0 ./src1/socket_demo.o
 .data          0x001452c8        0x0 ./src1/sql_functions.o
 .data          0x001452c8        0x0 ./src1/string_convert.o
 .data          0x001452c8        0x4 ./src1/touch.o
 .data          0x001452cc        0x0 ./src1/touch_demo.o
 .data          0x001452cc        0x0 ./src1/transaction.o
 .data          0x001452cc        0x0 ./src1/uart_demo.o
 .data          0x001452cc        0x8 ./src1/video.o
 .data          0x001452d4        0x0 ./src1/visualstring.o
 .data          0x001452d4        0x0 ./jsonfiles/arraylist.o
 .data          0x001452d4        0x0 ./jsonfiles/debug.o
 .data          0x001452d4        0x8 ./jsonfiles/json_object.o
                0x001452d4                json_number_chars
                0x001452d8                json_hex_chars
 .data          0x001452dc        0x0 ./jsonfiles/json_object_iterator.o
 .data          0x001452dc       0x48 ./jsonfiles/json_tokener.o
                0x001452e8                json_tokener_errors
 .data          0x00145324       0x1c ./jsonfiles/json_util.o
 .data          0x00145340        0x0 ./jsonfiles/linkhash.o
 .data          0x00145340        0x0 ./jsonfiles/printbuf.o
 .data          0x00145340        0x0 /opt/compiler/glibc-oabi-toolchain-arm-generic/lib/gcc/arm-unknown-linux-gnu/4.3.4/libgcc.a(_udivsi3.o)
 .data          0x00145340        0x0 /opt/compiler/glibc-oabi-toolchain-arm-generic/lib/gcc/arm-unknown-linux-gnu/4.3.4/libgcc.a(_divsi3.o)
 .data          0x00145340        0x0 /opt/compiler/glibc-oabi-toolchain-arm-generic/lib/gcc/arm-unknown-linux-gnu/4.3.4/libgcc.a(_umodsi3.o)
 .data          0x00145340        0x0 /opt/compiler/glibc-oabi-toolchain-arm-generic/lib/gcc/arm-unknown-linux-gnu/4.3.4/libgcc.a(_modsi3.o)
 .data          0x00145340        0x0 /opt/compiler/glibc-oabi-toolchain-arm-generic/lib/gcc/arm-unknown-linux-gnu/4.3.4/libgcc.a(_dvmd_tls.o)
 .data          0x00145340        0x0 /opt/compiler/glibc-oabi-toolchain-arm-generic/lib/gcc/arm-unknown-linux-gnu/4.3.4/libgcc.a(_addsubdf3.o)
 .data          0x00145340        0x0 /opt/compiler/glibc-oabi-toolchain-arm-generic/lib/gcc/arm-unknown-linux-gnu/4.3.4/libgcc.a(_muldivdf3.o)
 .data          0x00145340        0x0 /opt/compiler/glibc-oabi-toolchain-arm-generic/lib/gcc/arm-unknown-linux-gnu/4.3.4/libgcc.a(_cmpdf2.o)
 .data          0x00145340        0x0 /opt/compiler/glibc-oabi-toolchain-arm-generic/lib/gcc/arm-unknown-linux-gnu/4.3.4/libgcc.a(_fixdfsi.o)
 .data          0x00145340        0x0 /opt/compiler/glibc-oabi-toolchain-arm-generic/lib/gcc/arm-unknown-linux-gnu/4.3.4/libgcc.a(_fixunsdfsi.o)
 .data          0x00145340        0x0 /opt/compiler/glibc-oabi-toolchain-arm-generic/lib/gcc/arm-unknown-linux-gnu/4.3.4/libgcc.a(_truncdfsf2.o)
 .data          0x00145340        0x0 /opt/compiler/glibc-oabi-toolchain-arm-generic/lib/gcc/arm-unknown-linux-gnu/4.3.4/libgcc.a(_addsubsf3.o)
 .data          0x00145340        0x0 /opt/compiler/glibc-oabi-toolchain-arm-generic/lib/gcc/arm-unknown-linux-gnu/4.3.4/libgcc.a(_muldivsf3.o)
 .data          0x00145340        0x0 /opt/compiler/glibc-oabi-toolchain-arm-generic/lib/gcc/arm-unknown-linux-gnu/4.3.4/libgcc.a(_cmpsf2.o)
 .data          0x00145340        0x0 /opt/compiler/glibc-oabi-toolchain-arm-generic/lib/gcc/arm-unknown-linux-gnu/4.3.4/libgcc.a(_fixsfsi.o)
 .data          0x00145340        0x0 /opt/compiler/glibc-oabi-toolchain-arm-generic/lib/gcc/arm-unknown-linux-gnu/4.3.4/libgcc.a(_fixunssfsi.o)
 .data          0x00145340        0x0 /opt/compiler/glibc-oabi-toolchain-arm-generic/lib/gcc/arm-unknown-linux-gnu/4.3.4/libgcc.a(_fixdfdi.o)
 .data          0x00145340        0x0 /opt/compiler/glibc-oabi-toolchain-arm-generic/lib/gcc/arm-unknown-linux-gnu/4.3.4/libgcc.a(_fixunsdfdi.o)
 .data          0x00145340        0x0 /opt/compiler/glibc-oabi-toolchain-arm-generic/lib/gcc/arm-unknown-linux-gnu/4.3.4/libgcc.a(_udivdi3.o)
 .data          0x00145340        0x0 /opt/compiler/glibc-oabi-toolchain-arm-generic/lib/gcc/arm-unknown-linux-gnu/4.3.4/libgcc.a(_umoddi3.o)
 .data          0x00145340        0x0 /opt/compiler/glibc-oabi-toolchain-arm-generic/lib/gcc/arm-unknown-linux-gnu/4.3.4/libgcc.a(_clz.o)
 .data          0x00145340        0x0 /opt/compiler/glibc-oabi-toolchain-arm-generic/arm-unknown-linux-gnu//sys-root/usr/lib/libc_nonshared.a(elf-init.oS)
 .data          0x00145340        0x4 /opt/compiler/glibc-oabi-toolchain-arm-generic/lib/gcc/arm-unknown-linux-gnu/4.3.4/crtend.o
 .data          0x00145344        0x0 /opt/compiler/glibc-oabi-toolchain-arm-generic/arm-unknown-linux-gnu//sys-root/usr/lib/crtn.o

.data1
 *(.data1)
                0x00145344                _edata = .
                0x00145344                PROVIDE (edata, .)
                0x00145344                __bss_start = .
                0x00145344                __bss_start__ = .

.bss            0x00145344     0x84a4
 *(.dynbss)
 .dynbss        0x00145344        0xc /opt/compiler/glibc-oabi-toolchain-arm-generic/arm-unknown-linux-gnu//sys-root/usr/lib/crti.o
                0x00145344                stdout@@GLIBC_2.0
                0x00145348                stdin@@GLIBC_2.0
                0x0014534c                stderr@@GLIBC_2.0
 *(.bss .bss.* .gnu.linkonce.b.*)
 .bss           0x00145350        0x0 /opt/compiler/glibc-oabi-toolchain-arm-generic/arm-unknown-linux-gnu//sys-root/usr/lib/crt1.o
 .bss           0x00145350        0x0 /opt/compiler/glibc-oabi-toolchain-arm-generic/arm-unknown-linux-gnu//sys-root/usr/lib/crti.o
 .bss           0x00145350        0x8 /opt/compiler/glibc-oabi-toolchain-arm-generic/lib/gcc/arm-unknown-linux-gnu/4.3.4/crtbegin.o
 .bss           0x00145358        0x0 ./zint-master/frontend/getopt.o
 .bss           0x00145358        0x0 ./zint-master/frontend/getopt1.o
 .bss           0x00145358        0x0 ./zint-master/backend/2of5.o
 .bss           0x00145358        0x0 ./zint-master/backend/auspost.o
 .bss           0x00145358        0x0 ./zint-master/backend/aztec.o
 .bss           0x00145358        0x0 ./zint-master/backend/code.o
 .bss           0x00145358        0x0 ./zint-master/backend/code1.o
 .bss           0x00145358      0x550 ./zint-master/backend/code128.o
 .bss           0x001458a8      0x550 ./zint-master/backend/code16k.o
 .bss           0x00145df8        0x0 ./zint-master/backend/code49.o
 .bss           0x00145df8        0x0 ./zint-master/backend/common.o
 .bss           0x00145df8      0x3c6 ./zint-master/backend/composite.o
 .bss           0x001461be        0x0 ./zint-master/backend/dllversion.o
 .bss           0x001461be        0x0 ./zint-master/backend/dmatrix.o
 .bss           0x001461be        0x0 ./zint-master/backend/gridmtx.o
 .bss           0x001461be        0x0 ./zint-master/backend/gs1.o
 .bss           0x001461be        0x0 ./zint-master/backend/imail.o
 .bss           0x001461be        0x0 ./zint-master/backend/large.o
 .bss           0x001461be        0x0 ./zint-master/backend/library.o
 .bss           0x001461be        0x0 ./zint-master/backend/maxicode.o
 .bss           0x001461be        0x0 ./zint-master/backend/medical.o
 .bss           0x001461be        0x0 ./zint-master/backend/pdf417.o
 .bss           0x001461be        0x0 ./zint-master/backend/plessey.o
 .bss           0x001461be        0x0 ./zint-master/backend/png.o
 .bss           0x001461be        0x0 ./zint-master/backend/postal.o
 .bss           0x001461be        0x0 ./zint-master/backend/ps.o
 .bss           0x001461be        0x0 ./zint-master/backend/qr.o
 *fill*         0x001461be        0x2 00
 .bss           0x001461c0       0x1c ./zint-master/backend/reedsol.o
 .bss           0x001461dc        0x0 ./zint-master/backend/render.o
 .bss           0x001461dc       0x20 ./zint-master/backend/rss.o
 .bss           0x001461fc        0x0 ./zint-master/backend/svg.o
 .bss           0x001461fc        0x0 ./zint-master/backend/telepen.o
 .bss           0x001461fc        0x0 ./zint-master/backend/upcean.o
 .bss           0x001461fc       0x10 ./src1/ContactSmartCard.o
 .bss           0x0014620c        0x0 ./src1/JSON_checker.o
 .bss           0x0014620c        0x0 ./src1/Z_report.o
 .bss           0x0014620c        0x4 ./src1/cJSON.o
 .bss           0x00146210       0x10 ./src1/cardinfo.o
 .bss           0x00146220       0x10 ./src1/cl_smartcard_demo.o
 .bss           0x00146230        0x0 ./src1/configurations.o
 .bss           0x00146230       0x10 ./src1/desfire_test.o
 .bss           0x00146240        0x0 ./src1/display.o
 .bss           0x00146240       0x10 ./src1/fp_test.o
 .bss           0x00146250       0x18 ./src1/gprs_demo.o
                0x00146250                out_fd
                0x00146254                head_fd
 .bss           0x00146268       0x18 ./src1/jsonread.o
                0x00146268                lock_at_menu_items
                0x0014626c                location
 .bss           0x00146280        0x0 ./src1/jsontest.o
 .bss           0x00146280       0x18 ./src1/keyboart.o
                0x00146280                KEY_TIMEOUT
                0x00146284                lastypedKey
 .bss           0x00146298       0x2c ./src1/lcd.o
                0x0014629c                main_surface
                0x001462a0                __SCREEN_SAVED
                0x00146298                dfb
 .bss           0x001462c4       0x10 ./src1/magneticstrip_demo.o
 .bss           0x001462d4       0x10 ./src1/main.o
 .bss           0x001462e4       0x14 ./src1/menu_back_forth.o
                0x001462e4                menu_items_in_path
 .bss           0x001462f8       0x14 ./src1/menu_hash.o
                0x001462f8                menu_items_structure
 .bss           0x0014630c       0x10 ./src1/modem_demo.o
 .bss           0x0014631c       0x10 ./src1/mutwol.o
 .bss           0x0014632c       0x10 ./src1/network_f.o
 .bss           0x0014633c       0x18 ./src1/postslib_extern.o
 .bss           0x00146354       0x18 ./src1/printer_demo.o
 .bss           0x0014636c       0x10 ./src1/receipt.o
 .bss           0x0014637c       0x14 ./src1/socket_demo.o
 .bss           0x00146390       0x10 ./src1/sql_functions.o
 .bss           0x001463a0        0x4 ./src1/string_convert.o
 .bss           0x001463a4        0x0 ./src1/touch.o
 .bss           0x001463a4       0x10 ./src1/touch_demo.o
 .bss           0x001463b4        0x0 ./src1/transaction.o
 .bss           0x001463b4       0x10 ./src1/uart_demo.o
 .bss           0x001463c4       0x38 ./src1/video.o
 .bss           0x001463fc        0x0 ./src1/visualstring.o
 .bss           0x001463fc        0x0 ./jsonfiles/arraylist.o
 .bss           0x001463fc        0x8 ./jsonfiles/debug.o
 .bss           0x00146404        0x0 ./jsonfiles/json_object.o
 .bss           0x00146404        0x4 ./jsonfiles/json_object_iterator.o
 .bss           0x00146408        0x0 ./jsonfiles/json_tokener.o
 .bss           0x00146408        0x0 ./jsonfiles/json_util.o
 .bss           0x00146408        0x0 ./jsonfiles/linkhash.o
 .bss           0x00146408        0x1 ./jsonfiles/printbuf.o
 .bss           0x00146409        0x0 /opt/compiler/glibc-oabi-toolchain-arm-generic/lib/gcc/arm-unknown-linux-gnu/4.3.4/libgcc.a(_udivsi3.o)
 .bss           0x00146409        0x0 /opt/compiler/glibc-oabi-toolchain-arm-generic/lib/gcc/arm-unknown-linux-gnu/4.3.4/libgcc.a(_divsi3.o)
 .bss           0x00146409        0x0 /opt/compiler/glibc-oabi-toolchain-arm-generic/lib/gcc/arm-unknown-linux-gnu/4.3.4/libgcc.a(_umodsi3.o)
 .bss           0x00146409        0x0 /opt/compiler/glibc-oabi-toolchain-arm-generic/lib/gcc/arm-unknown-linux-gnu/4.3.4/libgcc.a(_modsi3.o)
 .bss           0x00146409        0x0 /opt/compiler/glibc-oabi-toolchain-arm-generic/lib/gcc/arm-unknown-linux-gnu/4.3.4/libgcc.a(_dvmd_tls.o)
 .bss           0x00146409        0x0 /opt/compiler/glibc-oabi-toolchain-arm-generic/lib/gcc/arm-unknown-linux-gnu/4.3.4/libgcc.a(_addsubdf3.o)
 .bss           0x00146409        0x0 /opt/compiler/glibc-oabi-toolchain-arm-generic/lib/gcc/arm-unknown-linux-gnu/4.3.4/libgcc.a(_muldivdf3.o)
 .bss           0x00146409        0x0 /opt/compiler/glibc-oabi-toolchain-arm-generic/lib/gcc/arm-unknown-linux-gnu/4.3.4/libgcc.a(_cmpdf2.o)
 .bss           0x00146409        0x0 /opt/compiler/glibc-oabi-toolchain-arm-generic/lib/gcc/arm-unknown-linux-gnu/4.3.4/libgcc.a(_fixdfsi.o)
 .bss           0x00146409        0x0 /opt/compiler/glibc-oabi-toolchain-arm-generic/lib/gcc/arm-unknown-linux-gnu/4.3.4/libgcc.a(_fixunsdfsi.o)
 .bss           0x00146409        0x0 /opt/compiler/glibc-oabi-toolchain-arm-generic/lib/gcc/arm-unknown-linux-gnu/4.3.4/libgcc.a(_truncdfsf2.o)
 .bss           0x00146409        0x0 /opt/compiler/glibc-oabi-toolchain-arm-generic/lib/gcc/arm-unknown-linux-gnu/4.3.4/libgcc.a(_addsubsf3.o)
 .bss           0x00146409        0x0 /opt/compiler/glibc-oabi-toolchain-arm-generic/lib/gcc/arm-unknown-linux-gnu/4.3.4/libgcc.a(_muldivsf3.o)
 .bss           0x00146409        0x0 /opt/compiler/glibc-oabi-toolchain-arm-generic/lib/gcc/arm-unknown-linux-gnu/4.3.4/libgcc.a(_cmpsf2.o)
 .bss           0x00146409        0x0 /opt/compiler/glibc-oabi-toolchain-arm-generic/lib/gcc/arm-unknown-linux-gnu/4.3.4/libgcc.a(_fixsfsi.o)
 .bss           0x00146409        0x0 /opt/compiler/glibc-oabi-toolchain-arm-generic/lib/gcc/arm-unknown-linux-gnu/4.3.4/libgcc.a(_fixunssfsi.o)
 .bss           0x00146409        0x0 /opt/compiler/glibc-oabi-toolchain-arm-generic/lib/gcc/arm-unknown-linux-gnu/4.3.4/libgcc.a(_fixdfdi.o)
 .bss           0x00146409        0x0 /opt/compiler/glibc-oabi-toolchain-arm-generic/lib/gcc/arm-unknown-linux-gnu/4.3.4/libgcc.a(_fixunsdfdi.o)
 .bss           0x00146409        0x0 /opt/compiler/glibc-oabi-toolchain-arm-generic/lib/gcc/arm-unknown-linux-gnu/4.3.4/libgcc.a(_udivdi3.o)
 .bss           0x00146409        0x0 /opt/compiler/glibc-oabi-toolchain-arm-generic/lib/gcc/arm-unknown-linux-gnu/4.3.4/libgcc.a(_umoddi3.o)
 .bss           0x00146409        0x0 /opt/compiler/glibc-oabi-toolchain-arm-generic/lib/gcc/arm-unknown-linux-gnu/4.3.4/libgcc.a(_clz.o)
 .bss           0x00146409        0x0 /opt/compiler/glibc-oabi-toolchain-arm-generic/arm-unknown-linux-gnu//sys-root/usr/lib/libc_nonshared.a(elf-init.oS)
 .bss           0x00146409        0x0 /opt/compiler/glibc-oabi-toolchain-arm-generic/lib/gcc/arm-unknown-linux-gnu/4.3.4/crtend.o
 .bss           0x00146409        0x0 /opt/compiler/glibc-oabi-toolchain-arm-generic/arm-unknown-linux-gnu//sys-root/usr/lib/crtn.o
 *(COMMON)
 *fill*         0x00146409        0x3 00
 COMMON         0x0014640c       0x7e ./zint-master/backend/code.o
                0x0014640c                B
                0x00146438                target_value
                0x0014643c                S
                0x00146468                value
                0x0014646c                pattern
 *fill*         0x0014648a        0x2 00
 COMMON         0x0014648c      0x240 ./zint-master/backend/maxicode.o
                0x0014648c                maxi_codeword
 COMMON         0x001466cc     0x1f40 ./zint-master/backend/pdf417.o
                0x001466cc                liste
 COMMON         0x0014860c       0x10 ./src1/ContactSmartCard.o
                0x0014860c                flag_new_line
                0x00148610                donnot_get_key
                0x00148614                defined_x
                0x00148618                events
 COMMON         0x0014861c     0x4acd ./src1/cardinfo.o
                0x0014861c                transactionstring
                0x001491d4                ppp_request_ok
                0x001491d8                pmode
                0x001491ec                rootServiceName
                0x00149214                serviceCode
                0x00149218                serial_num
                0x0014922c                service_code
                0x00149230                serial_number
                0x00149234                last_in_path
                0x00149238                increament_read
                0x0014923c                current_synch_item
                0x00149240                parentId_key
                0x00149244                params_to_db
                0x00149248                bdep
                0x001492ac                panel_two
                0x001492b0                printflag
                0x001492b4                z_number_recieved
                0x001492b8                bcode
                0x001492ec                x_report_total_num_invalid_sbp
                0x001492f0                serviceNameSelected
                0x00149354                parentType
                0x00149358                flag_online
                0x0014935c                my_offline_params
                0x00149360                service_name_key
                0x00149364                flag_z_done
                0x00149368                ptime
                0x0014936c                transaction
                0x00149d30                logged_offline
                0x00149d34                marktId
                0x00149d38                subservice_id
                0x00149d3c                x_report_total_txt_number
                0x00149d40                label_two
                0x00149d44                voided_tx_time
                0x00149d78                reading_params_for_z
                0x00149d7c                x_report_total_txt_amount
                0x00149d80                currentPID
                0x00149db4                label_one
                0x00149db8                subservice_name1
                0x00149dbc                flag_getting_z
                0x00149dc0                transactionfile
                0x0014a978                one_tx_for_z
                0x0014a97c                add_message_below_input
                0x0014a980                print_complete
                0x0014a984                transactin_val_name
                0x0014a988                getting_offline_params
                0x0014a98c                x_report_total_txt_amount_offline
                0x0014a990                app_number
                0x0014a9b8                transactin_name
                0x0014a9bc                transaction_count_to_confirm_z
                0x0014a9c0                response
                0x0014aaec                recptnum
                0x0014ab50                transactionfile1
                0x0014b708                dataout
                0x0014c2c0                voidLimit
                0x0014c2c4                serviceNameSelected1
                0x0014c328                offset_forZ
                0x0014c32c                z_number
                0x0014c338                params_key
                0x0014c33c                CurrentUser
                0x0014c670                x_report_total_txt_number_voided
                0x0014c674                url
                0x0014c6d8                keep_db_after_z
                0x0014c6dc                myConfigurations
                0x0014c6e0                key_board_title
                0x0014c6e4                panel_one
                0x0014c6e8                receiptlog
                0x0014c74c                myBenf
                0x0014cbbc                parentType_key
                0x0014cbc0                user_services_count
                0x0014cbc4                x_report_total_txt_number_offline
                0x0014cbc8                paramtype
                0x0014cbcc                z_date
                0x0014cbfe                receipts_nos_posted
                0x0014ccc8                set_p
                0x0014cccc                service_level_key
                0x0014ccd0                main_service_level
                0x0014ccd4                x_report_total_val_invalid_sbp
                0x0014ccd8                mac_address1
                0x0014ccec                z_rejected
                0x0014ccf0                service_id_key
                0x0014ccf4                myTransactions
                0x0014cd90                login_successful
                0x0014cd94                x_report_total_val_sbp
                0x0014cd98                charges
                0x0014cd9c                service_details_not_found
                0x0014cda0                charge
                0x0014cdb4                parentId
                0x0014cdb8                subservice_id_key
                0x0014cdbc                x_report_total_num_sbp
                0x0014cdc0                prev_user_txn
                0x0014cdc4                subservice_name
                0x0014cdc8                serviceName32
                0x0014ce2c                payment_ref_code
                0x0014ce4c                x_report_total_val_invalid
                0x0014ce50                currentid
                0x0014ce82                chargesbp
                0x0014ceac                number_of_z_transactions
                0x0014ceb0                flag_getting_pwd2
                0x0014ceb4                rootMenuIdent
                0x0014ceb8                fag_start_ppp_session
                0x0014cebc                rootServiceId
                0x0014cee4                rcpt_date
                0x0014cf16                newRootServiceNameSelected
                0x0014cf7c                myCost
                0x0014cf80                current_synch_batch
                0x0014cf84                bid
                0x0014cfb8                flag_stop_z
                0x0014cfbc                service_level
                0x0014cfc0                flag_update_menu
                0x0014cfc4                flag_getting_pwd1
                0x0014cfc8                parentid
                0x0014cfcc                flag_offline_login
                0x0014cfd0                mac_address
                0x0014cfe4                service_name
                0x0014cfe8                serviceName
                0x0014cfec                transactin_val
                0x0014cff0                main_menu_count
                0x0014cff4                service_code_key
                0x0014cff8                time_for_receipt
                0x0014d018                jsonResponse
                0x0014d01c                flag_getting_pwd
                0x0014d020                x_report_total_num_invalid
                0x0014d024                update_stopped
                0x0014d028                s
                0x0014d02c                arraylen
                0x0014d030                x_report_total_txt_amount_voided
                0x0014d034                please_print
                0x0014d038                z_data
                0x0014d03c                bname
                0x0014d070                params
                0x0014d074                token
                0x0014d0d8                online
                0x0014d0dc                number_of_trans
                0x0014d0e0                disable_timer
                0x0014d0e4                flag_getting_sbp
                0x0014d0e8                current_menu
 *fill*         0x0014d0e9        0x3 00
 COMMON         0x0014d0ec      0x190 ./src1/fp_test.o
                0x0014d0ec                db_values
                0x0014d0f0                language
                0x0014d104                pin_no
                0x0014d108                personalstring
                0x0014d10c                downloaded_topup_value
                0x0014d110                dbreadCounter_languages
                0x0014d114                dateofbirths
                0x0014d118                db_collumn_names_languages
                0x0014d11c                topup_download
                0x0014d120                exit_loop
                0x0014d124                original_card_Number
                0x0014d14c                db_collumn_names
                0x0014d150                started_program
                0x0014d154                downloaded_topup
                0x0014d158                collums_in_rs
                0x0014d15c                fp_counter
                0x0014d160                card_name
                0x0014d1c4                activity_in_progress
                0x0014d1c8                dbreadCounter
                0x0014d1cc                update_smart_card
                0x0014d1d0                arabic
                0x0014d1d4                Linearfile_counter
                0x0014d1d8                downloaded_topup_items
                0x0014d1dc                db_values_languages
                0x0014d1e0                collums_in_rs_languages
                0x0014d1e4                sam_verification
                0x0014d1e8                hsgfplib
                0x0014d1ec                in_purchase
                0x0014d1f0                card_Number
                0x0014d218                retailer_name
 COMMON         0x0014d27c      0x140 ./src1/gprs_demo.o
                0x0014d27c                retval
                0x0014d280                receipt_num
                0x0014d284                res
                0x0014d288                errmsg
                0x0014d388                curl
                0x0014d38c                tidx
                0x0014d390                tz
                0x0014d398                start
                0x0014d3a0                tidx1
                0x0014d3a4                diff
                0x0014d3ac                end
                0x0014d3b4                cur
 COMMON         0x0014d3bc      0x3ec ./src1/jsonread.o
                0x0014d3bc                holder
                0x0014d3c0                listed_menu
 COMMON         0x0014d7a8        0x4 ./src1/keyboart.o
                0x0014d7a8                current
 COMMON         0x0014d7ac       0x2c ./src1/lcd.o
                0x0014d7ac                fdesc
 COMMON         0x0014d7d8        0x4 ./src1/mutwol.o
                0x0014d7d8                fd
 COMMON         0x0014d7dc        0x8 ./src1/sql_functions.o
                0x0014d7dc                collectStr
                0x0014d7e0                row_count
 COMMON         0x0014d7e4        0x4 ./src1/video.o
                0x0014d7e4                err
                0x0014d7e8                . = ALIGN ((. != 0x0)?0x4:0x1)
                0x0014d7e8                _bss_end__ = .
                0x0014d7e8                __bss_end__ = .
                0x0014d7e8                . = ALIGN (0x4)
                0x0014d7e8                . = ALIGN (0x4)
                0x0014d7e8                __end__ = .
                0x0014d7e8                _end = .
                0x0014d7e8                PROVIDE (end, .)
                0x0014d7e8                . = DATA_SEGMENT_END (.)

.stab
 *(.stab)

.stabstr
 *(.stabstr)

.stab.excl
 *(.stab.excl)

.stab.exclstr
 *(.stab.exclstr)

.stab.index
 *(.stab.index)

.stab.indexstr
 *(.stab.indexstr)

.comment        0x00000000      0xb2c
 *(.comment)
 .comment       0x00000000       0x12 /opt/compiler/glibc-oabi-toolchain-arm-generic/arm-unknown-linux-gnu//sys-root/usr/lib/crt1.o
 .comment       0x00000012       0x12 /opt/compiler/glibc-oabi-toolchain-arm-generic/arm-unknown-linux-gnu//sys-root/usr/lib/crti.o
 .comment       0x00000024       0x22 /opt/compiler/glibc-oabi-toolchain-arm-generic/lib/gcc/arm-unknown-linux-gnu/4.3.4/crtbegin.o
 .comment       0x00000046       0x22 ./zint-master/frontend/getopt.o
 .comment       0x00000068       0x22 ./zint-master/frontend/getopt1.o
 .comment       0x0000008a       0x22 ./zint-master/backend/2of5.o
 .comment       0x000000ac       0x22 ./zint-master/backend/auspost.o
 .comment       0x000000ce       0x22 ./zint-master/backend/aztec.o
 .comment       0x000000f0       0x22 ./zint-master/backend/code.o
 .comment       0x00000112       0x22 ./zint-master/backend/code1.o
 .comment       0x00000134       0x22 ./zint-master/backend/code128.o
 .comment       0x00000156       0x22 ./zint-master/backend/code16k.o
 .comment       0x00000178       0x22 ./zint-master/backend/code49.o
 .comment       0x0000019a       0x22 ./zint-master/backend/common.o
 .comment       0x000001bc       0x22 ./zint-master/backend/composite.o
 .comment       0x000001de       0x22 ./zint-master/backend/dllversion.o
 .comment       0x00000200       0x22 ./zint-master/backend/dmatrix.o
 .comment       0x00000222       0x22 ./zint-master/backend/gridmtx.o
 .comment       0x00000244       0x22 ./zint-master/backend/gs1.o
 .comment       0x00000266       0x22 ./zint-master/backend/imail.o
 .comment       0x00000288       0x22 ./zint-master/backend/large.o
 .comment       0x000002aa       0x22 ./zint-master/backend/library.o
 .comment       0x000002cc       0x22 ./zint-master/backend/maxicode.o
 .comment       0x000002ee       0x22 ./zint-master/backend/medical.o
 .comment       0x00000310       0x22 ./zint-master/backend/pdf417.o
 .comment       0x00000332       0x22 ./zint-master/backend/plessey.o
 .comment       0x00000354       0x22 ./zint-master/backend/png.o
 .comment       0x00000376       0x22 ./zint-master/backend/postal.o
 .comment       0x00000398       0x22 ./zint-master/backend/ps.o
 .comment       0x000003ba       0x22 ./zint-master/backend/qr.o
 .comment       0x000003dc       0x22 ./zint-master/backend/reedsol.o
 .comment       0x000003fe       0x22 ./zint-master/backend/render.o
 .comment       0x00000420       0x22 ./zint-master/backend/rss.o
 .comment       0x00000442       0x22 ./zint-master/backend/svg.o
 .comment       0x00000464       0x22 ./zint-master/backend/telepen.o
 .comment       0x00000486       0x22 ./zint-master/backend/upcean.o
 .comment       0x000004a8       0x22 ./src1/ContactSmartCard.o
 .comment       0x000004ca       0x22 ./src1/JSON_checker.o
 .comment       0x000004ec       0x22 ./src1/Z_report.o
 .comment       0x0000050e       0x22 ./src1/cJSON.o
 .comment       0x00000530       0x22 ./src1/cardinfo.o
 .comment       0x00000552       0x22 ./src1/cl_smartcard_demo.o
 .comment       0x00000574       0x22 ./src1/configurations.o
 .comment       0x00000596       0x22 ./src1/desfire_test.o
 .comment       0x000005b8       0x22 ./src1/display.o
 .comment       0x000005da       0x22 ./src1/fp_test.o
 .comment       0x000005fc       0x22 ./src1/gprs_demo.o
 .comment       0x0000061e       0x22 ./src1/jsonread.o
 .comment       0x00000640       0x22 ./src1/jsontest.o
 .comment       0x00000662       0x22 ./src1/keyboart.o
 .comment       0x00000684       0x22 ./src1/lcd.o
 .comment       0x000006a6       0x22 ./src1/magneticstrip_demo.o
 .comment       0x000006c8       0x22 ./src1/main.o
 .comment       0x000006ea       0x22 ./src1/menu_back_forth.o
 .comment       0x0000070c       0x22 ./src1/menu_hash.o
 .comment       0x0000072e       0x22 ./src1/modem_demo.o
 .comment       0x00000750       0x22 ./src1/mutwol.o
 .comment       0x00000772       0x22 ./src1/network_f.o
 .comment       0x00000794       0x22 ./src1/postslib_extern.o
 .comment       0x000007b6       0x22 ./src1/printer_demo.o
 .comment       0x000007d8       0x22 ./src1/receipt.o
 .comment       0x000007fa       0x22 ./src1/socket_demo.o
 .comment       0x0000081c       0x22 ./src1/sql_functions.o
 .comment       0x0000083e       0x22 ./src1/string_convert.o
 .comment       0x00000860       0x22 ./src1/touch.o
 .comment       0x00000882       0x22 ./src1/touch_demo.o
 .comment       0x000008a4       0x22 ./src1/transaction.o
 .comment       0x000008c6       0x22 ./src1/uart_demo.o
 .comment       0x000008e8       0x22 ./src1/video.o
 .comment       0x0000090a       0x22 ./src1/visualstring.o
 .comment       0x0000092c       0x22 ./jsonfiles/arraylist.o
 .comment       0x0000094e       0x22 ./jsonfiles/debug.o
 .comment       0x00000970       0x22 ./jsonfiles/json_object.o
 .comment       0x00000992       0x22 ./jsonfiles/json_object_iterator.o
 .comment       0x000009b4       0x22 ./jsonfiles/json_tokener.o
 .comment       0x000009d6       0x22 ./jsonfiles/json_util.o
 .comment       0x000009f8       0x22 ./jsonfiles/linkhash.o
 .comment       0x00000a1a       0x22 ./jsonfiles/printbuf.o
 .comment       0x00000a3c       0x22 /opt/compiler/glibc-oabi-toolchain-arm-generic/lib/gcc/arm-unknown-linux-gnu/4.3.4/libgcc.a(_fixdfdi.o)
 .comment       0x00000a5e       0x22 /opt/compiler/glibc-oabi-toolchain-arm-generic/lib/gcc/arm-unknown-linux-gnu/4.3.4/libgcc.a(_fixunsdfdi.o)
 .comment       0x00000a80       0x22 /opt/compiler/glibc-oabi-toolchain-arm-generic/lib/gcc/arm-unknown-linux-gnu/4.3.4/libgcc.a(_udivdi3.o)
 .comment       0x00000aa2       0x22 /opt/compiler/glibc-oabi-toolchain-arm-generic/lib/gcc/arm-unknown-linux-gnu/4.3.4/libgcc.a(_umoddi3.o)
 .comment       0x00000ac4       0x22 /opt/compiler/glibc-oabi-toolchain-arm-generic/lib/gcc/arm-unknown-linux-gnu/4.3.4/libgcc.a(_clz.o)
 .comment       0x00000ae6       0x12 /opt/compiler/glibc-oabi-toolchain-arm-generic/arm-unknown-linux-gnu//sys-root/usr/lib/libc_nonshared.a(elf-init.oS)
 .comment       0x00000af8       0x22 /opt/compiler/glibc-oabi-toolchain-arm-generic/lib/gcc/arm-unknown-linux-gnu/4.3.4/crtend.o
 .comment       0x00000b1a       0x12 /opt/compiler/glibc-oabi-toolchain-arm-generic/arm-unknown-linux-gnu//sys-root/usr/lib/crtn.o

.debug
 *(.debug)

.line
 *(.line)

.debug_srcinfo
 *(.debug_srcinfo)

.debug_sfnames
 *(.debug_sfnames)

.debug_aranges  0x00000000      0xb78
 *(.debug_aranges)
 .debug_aranges
                0x00000000       0x30 /opt/compiler/glibc-oabi-toolchain-arm-generic/arm-unknown-linux-gnu//sys-root/usr/lib/crti.o
 .debug_aranges
                0x00000030       0x20 ./zint-master/backend/2of5.o
 .debug_aranges
                0x00000050       0x20 ./zint-master/backend/auspost.o
 .debug_aranges
                0x00000070       0x20 ./zint-master/backend/aztec.o
 .debug_aranges
                0x00000090       0x20 ./zint-master/backend/code.o
 .debug_aranges
                0x000000b0       0x20 ./zint-master/backend/code1.o
 .debug_aranges
                0x000000d0       0x20 ./zint-master/backend/code128.o
 .debug_aranges
                0x000000f0       0x20 ./zint-master/backend/code16k.o
 .debug_aranges
                0x00000110       0x20 ./zint-master/backend/code49.o
 .debug_aranges
                0x00000130       0x20 ./zint-master/backend/common.o
 .debug_aranges
                0x00000150       0x20 ./zint-master/backend/composite.o
 .debug_aranges
                0x00000170       0x20 ./zint-master/backend/dmatrix.o
 .debug_aranges
                0x00000190       0x20 ./zint-master/backend/gridmtx.o
 .debug_aranges
                0x000001b0       0x20 ./zint-master/backend/gs1.o
 .debug_aranges
                0x000001d0       0x20 ./zint-master/backend/imail.o
 .debug_aranges
                0x000001f0       0x20 ./zint-master/backend/large.o
 .debug_aranges
                0x00000210       0x20 ./zint-master/backend/library.o
 .debug_aranges
                0x00000230       0x20 ./zint-master/backend/maxicode.o
 .debug_aranges
                0x00000250       0x20 ./zint-master/backend/medical.o
 .debug_aranges
                0x00000270       0x20 ./zint-master/backend/pdf417.o
 .debug_aranges
                0x00000290       0x20 ./zint-master/backend/plessey.o
 .debug_aranges
                0x000002b0       0x20 ./zint-master/backend/png.o
 .debug_aranges
                0x000002d0       0x20 ./zint-master/backend/postal.o
 .debug_aranges
                0x000002f0       0x20 ./zint-master/backend/ps.o
 .debug_aranges
                0x00000310       0x20 ./zint-master/backend/qr.o
 .debug_aranges
                0x00000330       0x20 ./zint-master/backend/reedsol.o
 .debug_aranges
                0x00000350       0x20 ./zint-master/backend/render.o
 .debug_aranges
                0x00000370       0x20 ./zint-master/backend/rss.o
 .debug_aranges
                0x00000390       0x20 ./zint-master/backend/svg.o
 .debug_aranges
                0x000003b0       0x20 ./zint-master/backend/telepen.o
 .debug_aranges
                0x000003d0       0x20 ./zint-master/backend/upcean.o
 .debug_aranges
                0x000003f0       0x20 ./src1/ContactSmartCard.o
 .debug_aranges
                0x00000410       0x20 ./src1/JSON_checker.o
 .debug_aranges
                0x00000430       0x20 ./src1/cJSON.o
 .debug_aranges
                0x00000450       0x20 ./src1/cardinfo.o
 .debug_aranges
                0x00000470       0x20 ./src1/cl_smartcard_demo.o
 .debug_aranges
                0x00000490       0x20 ./src1/desfire_test.o
 .debug_aranges
                0x000004b0       0x20 ./src1/display.o
 .debug_aranges
                0x000004d0       0x20 ./src1/fp_test.o
 .debug_aranges
                0x000004f0       0x20 ./src1/gprs_demo.o
 .debug_aranges
                0x00000510       0x20 ./src1/jsonread.o
 .debug_aranges
                0x00000530       0x20 ./src1/jsontest.o
 .debug_aranges
                0x00000550       0x20 ./src1/keyboart.o
 .debug_aranges
                0x00000570       0x20 ./src1/lcd.o
 .debug_aranges
                0x00000590       0x20 ./src1/magneticstrip_demo.o
 .debug_aranges
                0x000005b0       0x20 ./src1/main.o
 .debug_aranges
                0x000005d0       0x20 ./src1/menu_back_forth.o
 .debug_aranges
                0x000005f0       0x20 ./src1/menu_hash.o
 .debug_aranges
                0x00000610       0x20 ./src1/modem_demo.o
 .debug_aranges
                0x00000630       0x20 ./src1/mutwol.o
 .debug_aranges
                0x00000650       0x20 ./src1/network_f.o
 .debug_aranges
                0x00000670       0x20 ./src1/postslib_extern.o
 .debug_aranges
                0x00000690       0x20 ./src1/printer_demo.o
 .debug_aranges
                0x000006b0       0x20 ./src1/receipt.o
 .debug_aranges
                0x000006d0       0x20 ./src1/socket_demo.o
 .debug_aranges
                0x000006f0       0x20 ./src1/sql_functions.o
 .debug_aranges
                0x00000710       0x20 ./src1/string_convert.o
 .debug_aranges
                0x00000730       0x20 ./src1/touch.o
 .debug_aranges
                0x00000750       0x20 ./src1/touch_demo.o
 .debug_aranges
                0x00000770       0x20 ./src1/uart_demo.o
 .debug_aranges
                0x00000790       0x20 ./src1/video.o
 .debug_aranges
                0x000007b0       0x20 ./src1/visualstring.o
 .debug_aranges
                0x000007d0       0x20 ./jsonfiles/arraylist.o
 .debug_aranges
                0x000007f0       0x20 ./jsonfiles/debug.o
 .debug_aranges
                0x00000810       0x20 ./jsonfiles/json_object.o
 .debug_aranges
                0x00000830       0x20 ./jsonfiles/json_object_iterator.o
 .debug_aranges
                0x00000850       0x20 ./jsonfiles/json_tokener.o
 .debug_aranges
                0x00000870       0x20 ./jsonfiles/json_util.o
 .debug_aranges
                0x00000890       0x20 ./jsonfiles/linkhash.o
 .debug_aranges
                0x000008b0       0x20 ./jsonfiles/printbuf.o
 .debug_aranges
                0x000008d0       0x20 /opt/compiler/glibc-oabi-toolchain-arm-generic/lib/gcc/arm-unknown-linux-gnu/4.3.4/libgcc.a(_udivsi3.o)
 .debug_aranges
                0x000008f0       0x20 /opt/compiler/glibc-oabi-toolchain-arm-generic/lib/gcc/arm-unknown-linux-gnu/4.3.4/libgcc.a(_divsi3.o)
 .debug_aranges
                0x00000910       0x20 /opt/compiler/glibc-oabi-toolchain-arm-generic/lib/gcc/arm-unknown-linux-gnu/4.3.4/libgcc.a(_umodsi3.o)
 .debug_aranges
                0x00000930       0x20 /opt/compiler/glibc-oabi-toolchain-arm-generic/lib/gcc/arm-unknown-linux-gnu/4.3.4/libgcc.a(_modsi3.o)
 .debug_aranges
                0x00000950       0x20 /opt/compiler/glibc-oabi-toolchain-arm-generic/lib/gcc/arm-unknown-linux-gnu/4.3.4/libgcc.a(_dvmd_tls.o)
 .debug_aranges
                0x00000970       0x20 /opt/compiler/glibc-oabi-toolchain-arm-generic/lib/gcc/arm-unknown-linux-gnu/4.3.4/libgcc.a(_addsubdf3.o)
 .debug_aranges
                0x00000990       0x20 /opt/compiler/glibc-oabi-toolchain-arm-generic/lib/gcc/arm-unknown-linux-gnu/4.3.4/libgcc.a(_muldivdf3.o)
 .debug_aranges
                0x000009b0       0x20 /opt/compiler/glibc-oabi-toolchain-arm-generic/lib/gcc/arm-unknown-linux-gnu/4.3.4/libgcc.a(_cmpdf2.o)
 .debug_aranges
                0x000009d0       0x20 /opt/compiler/glibc-oabi-toolchain-arm-generic/lib/gcc/arm-unknown-linux-gnu/4.3.4/libgcc.a(_fixdfsi.o)
 .debug_aranges
                0x000009f0       0x20 /opt/compiler/glibc-oabi-toolchain-arm-generic/lib/gcc/arm-unknown-linux-gnu/4.3.4/libgcc.a(_fixunsdfsi.o)
 .debug_aranges
                0x00000a10       0x20 /opt/compiler/glibc-oabi-toolchain-arm-generic/lib/gcc/arm-unknown-linux-gnu/4.3.4/libgcc.a(_truncdfsf2.o)
 .debug_aranges
                0x00000a30       0x20 /opt/compiler/glibc-oabi-toolchain-arm-generic/lib/gcc/arm-unknown-linux-gnu/4.3.4/libgcc.a(_addsubsf3.o)
 .debug_aranges
                0x00000a50       0x20 /opt/compiler/glibc-oabi-toolchain-arm-generic/lib/gcc/arm-unknown-linux-gnu/4.3.4/libgcc.a(_muldivsf3.o)
 .debug_aranges
                0x00000a70       0x20 /opt/compiler/glibc-oabi-toolchain-arm-generic/lib/gcc/arm-unknown-linux-gnu/4.3.4/libgcc.a(_cmpsf2.o)
 .debug_aranges
                0x00000a90       0x20 /opt/compiler/glibc-oabi-toolchain-arm-generic/lib/gcc/arm-unknown-linux-gnu/4.3.4/libgcc.a(_fixsfsi.o)
 .debug_aranges
                0x00000ab0       0x20 /opt/compiler/glibc-oabi-toolchain-arm-generic/lib/gcc/arm-unknown-linux-gnu/4.3.4/libgcc.a(_fixunssfsi.o)
 .debug_aranges
                0x00000ad0       0x20 /opt/compiler/glibc-oabi-toolchain-arm-generic/lib/gcc/arm-unknown-linux-gnu/4.3.4/libgcc.a(_fixdfdi.o)
 .debug_aranges
                0x00000af0       0x20 /opt/compiler/glibc-oabi-toolchain-arm-generic/lib/gcc/arm-unknown-linux-gnu/4.3.4/libgcc.a(_fixunsdfdi.o)
 .debug_aranges
                0x00000b10       0x20 /opt/compiler/glibc-oabi-toolchain-arm-generic/lib/gcc/arm-unknown-linux-gnu/4.3.4/libgcc.a(_udivdi3.o)
 .debug_aranges
                0x00000b30       0x20 /opt/compiler/glibc-oabi-toolchain-arm-generic/lib/gcc/arm-unknown-linux-gnu/4.3.4/libgcc.a(_umoddi3.o)
 .debug_aranges
                0x00000b50       0x28 /opt/compiler/glibc-oabi-toolchain-arm-generic/arm-unknown-linux-gnu//sys-root/usr/lib/crtn.o

.debug_pubnames
                0x00000000     0xb51b
 *(.debug_pubnames)
 .debug_pubnames
                0x00000000       0xac ./zint-master/backend/2of5.o
 .debug_pubnames
                0x000000ac       0x32 ./zint-master/backend/auspost.o
 .debug_pubnames
                0x000000de       0x82 ./zint-master/backend/aztec.o
 .debug_pubnames
                0x00000160       0xb4 ./zint-master/backend/code.o
 .debug_pubnames
                0x00000214       0x98 ./zint-master/backend/code1.o
 .debug_pubnames
                0x000002ac       0x92 ./zint-master/backend/code128.o
 .debug_pubnames
                0x0000033e       0x65 ./zint-master/backend/code16k.o
 .debug_pubnames
                0x000003a3       0x51 ./zint-master/backend/code49.o
 .debug_pubnames
                0x000003f4      0x12c ./zint-master/backend/common.o
 .debug_pubnames
                0x00000520       0x95 ./zint-master/backend/composite.o
 .debug_pubnames
                0x000005b5       0x8b ./zint-master/backend/dmatrix.o
 .debug_pubnames
                0x00000640       0xd7 ./zint-master/backend/gridmtx.o
 .debug_pubnames
                0x00000717       0x3c ./zint-master/backend/gs1.o
 .debug_pubnames
                0x00000753       0x5a ./zint-master/backend/imail.o
 .debug_pubnames
                0x000007ad       0x79 ./zint-master/backend/large.o
 .debug_pubnames
                0x00000826      0x1ae ./zint-master/backend/library.o
 .debug_pubnames
                0x000009d4       0xfb ./zint-master/backend/maxicode.o
 .debug_pubnames
                0x00000acf       0x5b ./zint-master/backend/medical.o
 .debug_pubnames
                0x00000b2a       0x9e ./zint-master/backend/pdf417.o
 .debug_pubnames
                0x00000bc8       0x99 ./zint-master/backend/plessey.o
 .debug_pubnames
                0x00000c61       0xf6 ./zint-master/backend/png.o
 .debug_pubnames
                0x00000d57       0xb4 ./zint-master/backend/postal.o
 .debug_pubnames
                0x00000e0b       0x1e ./zint-master/backend/ps.o
 .debug_pubnames
                0x00000e29      0x1fe ./zint-master/backend/qr.o
 .debug_pubnames
                0x00001027       0x5f ./zint-master/backend/reedsol.o
 .debug_pubnames
                0x00001086       0xe2 ./zint-master/backend/render.o
 .debug_pubnames
                0x00001168       0x80 ./zint-master/backend/rss.o
 .debug_pubnames
                0x000011e8       0x1f ./zint-master/backend/svg.o
 .debug_pubnames
                0x00001207       0x2e ./zint-master/backend/telepen.o
 .debug_pubnames
                0x00001235       0xb5 ./zint-master/backend/upcean.o
 .debug_pubnames
                0x000012ea       0x6a ./src1/ContactSmartCard.o
 .debug_pubnames
                0x00001354       0x53 ./src1/JSON_checker.o
 .debug_pubnames
                0x000013a7      0x354 ./src1/cJSON.o
 .debug_pubnames
                0x000016fb      0xa79 ./src1/cardinfo.o
 .debug_pubnames
                0x00002174       0x84 ./src1/cl_smartcard_demo.o
 .debug_pubnames
                0x000021f8      0xafb ./src1/desfire_test.o
 .debug_pubnames
                0x00002cf3       0x51 ./src1/display.o
 .debug_pubnames
                0x00002d44      0xca3 ./src1/fp_test.o
 .debug_pubnames
                0x000039e7      0xb91 ./src1/gprs_demo.o
 .debug_pubnames
                0x00004578      0xaf9 ./src1/jsonread.o
 .debug_pubnames
                0x00005071       0x56 ./src1/jsontest.o
 .debug_pubnames
                0x000050c7      0xe39 ./src1/keyboart.o
 .debug_pubnames
                0x00005f00      0x551 ./src1/lcd.o
 .debug_pubnames
                0x00006451       0x67 ./src1/magneticstrip_demo.o
 .debug_pubnames
                0x000064b8      0x18b ./src1/main.o
 .debug_pubnames
                0x00006643      0xa20 ./src1/menu_back_forth.o
 .debug_pubnames
                0x00007063      0xa92 ./src1/menu_hash.o
 .debug_pubnames
                0x00007af5       0x5f ./src1/modem_demo.o
 .debug_pubnames
                0x00007b54      0x11d ./src1/mutwol.o
 .debug_pubnames
                0x00007c71      0xb61 ./src1/network_f.o
 .debug_pubnames
                0x000087d2      0x14d ./src1/postslib_extern.o
 .debug_pubnames
                0x0000891f      0xaaf ./src1/printer_demo.o
 .debug_pubnames
                0x000093ce      0xa00 ./src1/receipt.o
 .debug_pubnames
                0x00009dce      0x10a ./src1/socket_demo.o
 .debug_pubnames
                0x00009ed8      0xadf ./src1/sql_functions.o
 .debug_pubnames
                0x0000a9b7       0x33 ./src1/string_convert.o
 .debug_pubnames
                0x0000a9ea       0x93 ./src1/touch.o
 .debug_pubnames
                0x0000aa7d       0x5f ./src1/touch_demo.o
 .debug_pubnames
                0x0000aadc       0x5e ./src1/uart_demo.o
 .debug_pubnames
                0x0000ab3a       0x24 ./src1/video.o
 .debug_pubnames
                0x0000ab5e       0x51 ./src1/visualstring.o
 .debug_pubnames
                0x0000abaf       0xa4 ./jsonfiles/arraylist.o
 .debug_pubnames
                0x0000ac53       0x79 ./jsonfiles/debug.o
 .debug_pubnames
                0x0000accc      0x383 ./jsonfiles/json_object.o
 .debug_pubnames
                0x0000b04f       0xdc ./jsonfiles/json_object_iterator.o
 .debug_pubnames
                0x0000b12b       0xf3 ./jsonfiles/json_tokener.o
 .debug_pubnames
                0x0000b21e       0x8b ./jsonfiles/json_util.o
 .debug_pubnames
                0x0000b2a9      0x14e ./jsonfiles/linkhash.o
 .debug_pubnames
                0x0000b3f7       0x81 ./jsonfiles/printbuf.o
 .debug_pubnames
                0x0000b478       0x20 /opt/compiler/glibc-oabi-toolchain-arm-generic/lib/gcc/arm-unknown-linux-gnu/4.3.4/libgcc.a(_fixdfdi.o)
 .debug_pubnames
                0x0000b498       0x23 /opt/compiler/glibc-oabi-toolchain-arm-generic/lib/gcc/arm-unknown-linux-gnu/4.3.4/libgcc.a(_fixunsdfdi.o)
 .debug_pubnames
                0x0000b4bb       0x20 /opt/compiler/glibc-oabi-toolchain-arm-generic/lib/gcc/arm-unknown-linux-gnu/4.3.4/libgcc.a(_udivdi3.o)
 .debug_pubnames
                0x0000b4db       0x20 /opt/compiler/glibc-oabi-toolchain-arm-generic/lib/gcc/arm-unknown-linux-gnu/4.3.4/libgcc.a(_umoddi3.o)
 .debug_pubnames
                0x0000b4fb       0x20 /opt/compiler/glibc-oabi-toolchain-arm-generic/lib/gcc/arm-unknown-linux-gnu/4.3.4/libgcc.a(_clz.o)

.debug_info     0x00000000    0x943f0
 *(.debug_info .gnu.linkonce.wi.*)
 .debug_info    0x00000000       0xb8 /opt/compiler/glibc-oabi-toolchain-arm-generic/arm-unknown-linux-gnu//sys-root/usr/lib/crti.o
 .debug_info    0x000000b8       0x7a ./zint-master/frontend/getopt.o
 .debug_info    0x00000132       0x7a ./zint-master/frontend/getopt1.o
 .debug_info    0x000001ac      0x966 ./zint-master/backend/2of5.o
 .debug_info    0x00000b12      0x634 ./zint-master/backend/auspost.o
 .debug_info    0x00001146      0xc3c ./zint-master/backend/aztec.o
 .debug_info    0x00001d82      0xb25 ./zint-master/backend/code.o
 .debug_info    0x000028a7      0xfed ./zint-master/backend/code1.o
 .debug_info    0x00003894      0xb39 ./zint-master/backend/code128.o
 .debug_info    0x000043cd      0x8d7 ./zint-master/backend/code16k.o
 .debug_info    0x00004ca4      0x706 ./zint-master/backend/code49.o
 .debug_info    0x000053aa      0xadc ./zint-master/backend/common.o
 .debug_info    0x00005e86     0x1379 ./zint-master/backend/composite.o
 .debug_info    0x000071ff       0x49 ./zint-master/backend/dllversion.o
 .debug_info    0x00007248     0x100a ./zint-master/backend/dmatrix.o
 .debug_info    0x00008252      0xf0d ./zint-master/backend/gridmtx.o
 .debug_info    0x0000915f      0x6b8 ./zint-master/backend/gs1.o
 .debug_info    0x00009817      0x78c ./zint-master/backend/imail.o
 .debug_info    0x00009fa3      0x2fe ./zint-master/backend/large.o
 .debug_info    0x0000a2a1      0xdfb ./zint-master/backend/library.o
 .debug_info    0x0000b09c      0x99c ./zint-master/backend/maxicode.o
 .debug_info    0x0000ba38      0x81a ./zint-master/backend/medical.o
 .debug_info    0x0000c252      0xe7a ./zint-master/backend/pdf417.o
 .debug_info    0x0000d0cc      0xa30 ./zint-master/backend/plessey.o
 .debug_info    0x0000dafc     0x289d ./zint-master/backend/png.o
 .debug_info    0x00010399      0xd33 ./zint-master/backend/postal.o
 .debug_info    0x000110cc      0xa7f ./zint-master/backend/ps.o
 .debug_info    0x00011b4b     0x1d61 ./zint-master/backend/qr.o
 .debug_info    0x000138ac      0x28e ./zint-master/backend/reedsol.o
 .debug_info    0x00013b3a      0xa1e ./zint-master/backend/render.o
 .debug_info    0x00014558     0x130e ./zint-master/backend/rss.o
 .debug_info    0x00015866      0xa7f ./zint-master/backend/svg.o
 .debug_info    0x000162e5      0x5e5 ./zint-master/backend/telepen.o
 .debug_info    0x000168ca      0xc8e ./zint-master/backend/upcean.o
 .debug_info    0x00017558     0x26bc ./src1/ContactSmartCard.o
 .debug_info    0x00019c14      0x422 ./src1/JSON_checker.o
 .debug_info    0x0001a036       0x49 ./src1/Z_report.o
 .debug_info    0x0001a07f     0x11e6 ./src1/cJSON.o
 .debug_info    0x0001b265     0x392d ./src1/cardinfo.o
 .debug_info    0x0001eb92     0x2759 ./src1/cl_smartcard_demo.o
 .debug_info    0x000212eb       0x49 ./src1/configurations.o
 .debug_info    0x00021334     0x3dbf ./src1/desfire_test.o
 .debug_info    0x000250f3     0x8491 ./src1/display.o
 .debug_info    0x0002d584     0x3b56 ./src1/fp_test.o
 .debug_info    0x000310da     0x4cfa ./src1/gprs_demo.o
 .debug_info    0x00035dd4     0x3fe1 ./src1/jsonread.o
 .debug_info    0x00039db5      0x352 ./src1/jsontest.o
 .debug_info    0x0003a107     0x4354 ./src1/keyboart.o
 .debug_info    0x0003e45b     0x8b1b ./src1/lcd.o
 .debug_info    0x00046f76     0x2742 ./src1/magneticstrip_demo.o
 .debug_info    0x000496b8     0x2a71 ./src1/main.o
 .debug_info    0x0004c129     0x3656 ./src1/menu_back_forth.o
 .debug_info    0x0004f77f     0x3d09 ./src1/menu_hash.o
 .debug_info    0x00053488     0x263f ./src1/modem_demo.o
 .debug_info    0x00055ac7     0x29bb ./src1/mutwol.o
 .debug_info    0x00058482     0x3fd7 ./src1/network_f.o
 .debug_info    0x0005c459     0x2f92 ./src1/postslib_extern.o
 .debug_info    0x0005f3eb     0x9ba1 ./src1/printer_demo.o
 .debug_info    0x00068f8c     0x375b ./src1/receipt.o
 .debug_info    0x0006c6e7     0x7c44 ./src1/socket_demo.o
 .debug_info    0x0007432b     0x3ea1 ./src1/sql_functions.o
 .debug_info    0x000781cc      0x10c ./src1/string_convert.o
 .debug_info    0x000782d8     0x8501 ./src1/touch.o
 .debug_info    0x000807d9     0x4098 ./src1/touch_demo.o
 .debug_info    0x00084871       0x49 ./src1/transaction.o
 .debug_info    0x000848ba     0x2697 ./src1/uart_demo.o
 .debug_info    0x00086f51     0x8184 ./src1/video.o
 .debug_info    0x0008f0d5      0x200 ./src1/visualstring.o
 .debug_info    0x0008f2d5      0x2e5 ./jsonfiles/arraylist.o
 .debug_info    0x0008f5ba      0x475 ./jsonfiles/debug.o
 .debug_info    0x0008fa2f      0xfcc ./jsonfiles/json_object.o
 .debug_info    0x000909fb      0x5c2 ./jsonfiles/json_object_iterator.o
 .debug_info    0x00090fbd      0x75a ./jsonfiles/json_tokener.o
 .debug_info    0x00091717      0x3c8 ./jsonfiles/json_util.o
 .debug_info    0x00091adf      0x6b2 ./jsonfiles/linkhash.o
 .debug_info    0x00092191      0x347 ./jsonfiles/printbuf.o
 .debug_info    0x000924d8       0xef /opt/compiler/glibc-oabi-toolchain-arm-generic/lib/gcc/arm-unknown-linux-gnu/4.3.4/libgcc.a(_udivsi3.o)
 .debug_info    0x000925c7       0xef /opt/compiler/glibc-oabi-toolchain-arm-generic/lib/gcc/arm-unknown-linux-gnu/4.3.4/libgcc.a(_divsi3.o)
 .debug_info    0x000926b6       0xef /opt/compiler/glibc-oabi-toolchain-arm-generic/lib/gcc/arm-unknown-linux-gnu/4.3.4/libgcc.a(_umodsi3.o)
 .debug_info    0x000927a5       0xef /opt/compiler/glibc-oabi-toolchain-arm-generic/lib/gcc/arm-unknown-linux-gnu/4.3.4/libgcc.a(_modsi3.o)
 .debug_info    0x00092894       0xef /opt/compiler/glibc-oabi-toolchain-arm-generic/lib/gcc/arm-unknown-linux-gnu/4.3.4/libgcc.a(_dvmd_tls.o)
 .debug_info    0x00092983       0xee /opt/compiler/glibc-oabi-toolchain-arm-generic/lib/gcc/arm-unknown-linux-gnu/4.3.4/libgcc.a(_addsubdf3.o)
 .debug_info    0x00092a71       0xee /opt/compiler/glibc-oabi-toolchain-arm-generic/lib/gcc/arm-unknown-linux-gnu/4.3.4/libgcc.a(_muldivdf3.o)
 .debug_info    0x00092b5f       0xee /opt/compiler/glibc-oabi-toolchain-arm-generic/lib/gcc/arm-unknown-linux-gnu/4.3.4/libgcc.a(_cmpdf2.o)
 .debug_info    0x00092c4d       0xee /opt/compiler/glibc-oabi-toolchain-arm-generic/lib/gcc/arm-unknown-linux-gnu/4.3.4/libgcc.a(_fixdfsi.o)
 .debug_info    0x00092d3b       0xee /opt/compiler/glibc-oabi-toolchain-arm-generic/lib/gcc/arm-unknown-linux-gnu/4.3.4/libgcc.a(_fixunsdfsi.o)
 .debug_info    0x00092e29       0xee /opt/compiler/glibc-oabi-toolchain-arm-generic/lib/gcc/arm-unknown-linux-gnu/4.3.4/libgcc.a(_truncdfsf2.o)
 .debug_info    0x00092f17       0xee /opt/compiler/glibc-oabi-toolchain-arm-generic/lib/gcc/arm-unknown-linux-gnu/4.3.4/libgcc.a(_addsubsf3.o)
 .debug_info    0x00093005       0xee /opt/compiler/glibc-oabi-toolchain-arm-generic/lib/gcc/arm-unknown-linux-gnu/4.3.4/libgcc.a(_muldivsf3.o)
 .debug_info    0x000930f3       0xee /opt/compiler/glibc-oabi-toolchain-arm-generic/lib/gcc/arm-unknown-linux-gnu/4.3.4/libgcc.a(_cmpsf2.o)
 .debug_info    0x000931e1       0xee /opt/compiler/glibc-oabi-toolchain-arm-generic/lib/gcc/arm-unknown-linux-gnu/4.3.4/libgcc.a(_fixsfsi.o)
 .debug_info    0x000932cf       0xee /opt/compiler/glibc-oabi-toolchain-arm-generic/lib/gcc/arm-unknown-linux-gnu/4.3.4/libgcc.a(_fixunssfsi.o)
 .debug_info    0x000933bd       0xd1 /opt/compiler/glibc-oabi-toolchain-arm-generic/lib/gcc/arm-unknown-linux-gnu/4.3.4/libgcc.a(_fixdfdi.o)
 .debug_info    0x0009348e       0xfb /opt/compiler/glibc-oabi-toolchain-arm-generic/lib/gcc/arm-unknown-linux-gnu/4.3.4/libgcc.a(_fixunsdfdi.o)
 .debug_info    0x00093589      0x68c /opt/compiler/glibc-oabi-toolchain-arm-generic/lib/gcc/arm-unknown-linux-gnu/4.3.4/libgcc.a(_udivdi3.o)
 .debug_info    0x00093c15      0x65e /opt/compiler/glibc-oabi-toolchain-arm-generic/lib/gcc/arm-unknown-linux-gnu/4.3.4/libgcc.a(_umoddi3.o)
 .debug_info    0x00094273       0xc5 /opt/compiler/glibc-oabi-toolchain-arm-generic/lib/gcc/arm-unknown-linux-gnu/4.3.4/libgcc.a(_clz.o)
 .debug_info    0x00094338       0xb8 /opt/compiler/glibc-oabi-toolchain-arm-generic/arm-unknown-linux-gnu//sys-root/usr/lib/crtn.o

.debug_abbrev   0x00000000     0x7645
 *(.debug_abbrev)
 .debug_abbrev  0x00000000       0x12 /opt/compiler/glibc-oabi-toolchain-arm-generic/arm-unknown-linux-gnu//sys-root/usr/lib/crti.o
 .debug_abbrev  0x00000012       0x35 ./zint-master/frontend/getopt.o
 .debug_abbrev  0x00000047       0x35 ./zint-master/frontend/getopt1.o
 .debug_abbrev  0x0000007c      0x128 ./zint-master/backend/2of5.o
 .debug_abbrev  0x000001a4       0xe9 ./zint-master/backend/auspost.o
 .debug_abbrev  0x0000028d      0x17a ./zint-master/backend/aztec.o
 .debug_abbrev  0x00000407      0x19b ./zint-master/backend/code.o
 .debug_abbrev  0x000005a2      0x172 ./zint-master/backend/code1.o
 .debug_abbrev  0x00000714      0x13f ./zint-master/backend/code128.o
 .debug_abbrev  0x00000853       0xe9 ./zint-master/backend/code16k.o
 .debug_abbrev  0x0000093c      0x10f ./zint-master/backend/code49.o
 .debug_abbrev  0x00000a4b      0x146 ./zint-master/backend/common.o
 .debug_abbrev  0x00000b91      0x180 ./zint-master/backend/composite.o
 .debug_abbrev  0x00000d11       0x35 ./zint-master/backend/dllversion.o
 .debug_abbrev  0x00000d46      0x19d ./zint-master/backend/dmatrix.o
 .debug_abbrev  0x00000ee3      0x15f ./zint-master/backend/gridmtx.o
 .debug_abbrev  0x00001042      0x135 ./zint-master/backend/gs1.o
 .debug_abbrev  0x00001177      0x138 ./zint-master/backend/imail.o
 .debug_abbrev  0x000012af       0xc3 ./zint-master/backend/large.o
 .debug_abbrev  0x00001372      0x17e ./zint-master/backend/library.o
 .debug_abbrev  0x000014f0      0x194 ./zint-master/backend/maxicode.o
 .debug_abbrev  0x00001684       0xdb ./zint-master/backend/medical.o
 .debug_abbrev  0x0000175f      0x181 ./zint-master/backend/pdf417.o
 .debug_abbrev  0x000018e0      0x133 ./zint-master/backend/plessey.o
 .debug_abbrev  0x00001a13      0x21a ./zint-master/backend/png.o
 .debug_abbrev  0x00001c2d      0x141 ./zint-master/backend/postal.o
 .debug_abbrev  0x00001d6e      0x151 ./zint-master/backend/ps.o
 .debug_abbrev  0x00001ebf      0x1ae ./zint-master/backend/qr.o
 .debug_abbrev  0x0000206d       0xa6 ./zint-master/backend/reedsol.o
 .debug_abbrev  0x00002113      0x13e ./zint-master/backend/render.o
 .debug_abbrev  0x00002251      0x162 ./zint-master/backend/rss.o
 .debug_abbrev  0x000023b3      0x151 ./zint-master/backend/svg.o
 .debug_abbrev  0x00002504       0xdb ./zint-master/backend/telepen.o
 .debug_abbrev  0x000025df      0x16a ./zint-master/backend/upcean.o
 .debug_abbrev  0x00002749      0x188 ./src1/ContactSmartCard.o
 .debug_abbrev  0x000028d1      0x174 ./src1/JSON_checker.o
 .debug_abbrev  0x00002a45       0x35 ./src1/Z_report.o
 .debug_abbrev  0x00002a7a      0x1c6 ./src1/cJSON.o
 .debug_abbrev  0x00002c40      0x1d7 ./src1/cardinfo.o
 .debug_abbrev  0x00002e17      0x194 ./src1/cl_smartcard_demo.o
 .debug_abbrev  0x00002fab       0x35 ./src1/configurations.o
 .debug_abbrev  0x00002fe0      0x252 ./src1/desfire_test.o
 .debug_abbrev  0x00003232      0x233 ./src1/display.o
 .debug_abbrev  0x00003465      0x204 ./src1/fp_test.o
 .debug_abbrev  0x00003669      0x2b6 ./src1/gprs_demo.o
 .debug_abbrev  0x0000391f      0x2d0 ./src1/jsonread.o
 .debug_abbrev  0x00003bef       0xe0 ./src1/jsontest.o
 .debug_abbrev  0x00003ccf      0x267 ./src1/keyboart.o
 .debug_abbrev  0x00003f36      0x2dc ./src1/lcd.o
 .debug_abbrev  0x00004212      0x195 ./src1/magneticstrip_demo.o
 .debug_abbrev  0x000043a7      0x1bb ./src1/main.o
 .debug_abbrev  0x00004562      0x21d ./src1/menu_back_forth.o
 .debug_abbrev  0x0000477f      0x22c ./src1/menu_hash.o
 .debug_abbrev  0x000049ab      0x172 ./src1/modem_demo.o
 .debug_abbrev  0x00004b1d      0x1c3 ./src1/mutwol.o
 .debug_abbrev  0x00004ce0      0x2e7 ./src1/network_f.o
 .debug_abbrev  0x00004fc7      0x222 ./src1/postslib_extern.o
 .debug_abbrev  0x000051e9      0x2cd ./src1/printer_demo.o
 .debug_abbrev  0x000054b6      0x216 ./src1/receipt.o
 .debug_abbrev  0x000056cc      0x2b7 ./src1/socket_demo.o
 .debug_abbrev  0x00005983      0x29f ./src1/sql_functions.o
 .debug_abbrev  0x00005c22       0xa2 ./src1/string_convert.o
 .debug_abbrev  0x00005cc4      0x260 ./src1/touch.o
 .debug_abbrev  0x00005f24      0x19c ./src1/touch_demo.o
 .debug_abbrev  0x000060c0       0x35 ./src1/transaction.o
 .debug_abbrev  0x000060f5      0x184 ./src1/uart_demo.o
 .debug_abbrev  0x00006279      0x1fc ./src1/video.o
 .debug_abbrev  0x00006475       0xf2 ./src1/visualstring.o
 .debug_abbrev  0x00006567      0x12a ./jsonfiles/arraylist.o
 .debug_abbrev  0x00006691      0x12c ./jsonfiles/debug.o
 .debug_abbrev  0x000067bd      0x231 ./jsonfiles/json_object.o
 .debug_abbrev  0x000069ee      0x156 ./jsonfiles/json_object_iterator.o
 .debug_abbrev  0x00006b44      0x1bd ./jsonfiles/json_tokener.o
 .debug_abbrev  0x00006d01      0x126 ./jsonfiles/json_util.o
 .debug_abbrev  0x00006e27      0x137 ./jsonfiles/linkhash.o
 .debug_abbrev  0x00006f5e      0x137 ./jsonfiles/printbuf.o
 .debug_abbrev  0x00007095       0x14 /opt/compiler/glibc-oabi-toolchain-arm-generic/lib/gcc/arm-unknown-linux-gnu/4.3.4/libgcc.a(_udivsi3.o)
 .debug_abbrev  0x000070a9       0x14 /opt/compiler/glibc-oabi-toolchain-arm-generic/lib/gcc/arm-unknown-linux-gnu/4.3.4/libgcc.a(_divsi3.o)
 .debug_abbrev  0x000070bd       0x14 /opt/compiler/glibc-oabi-toolchain-arm-generic/lib/gcc/arm-unknown-linux-gnu/4.3.4/libgcc.a(_umodsi3.o)
 .debug_abbrev  0x000070d1       0x14 /opt/compiler/glibc-oabi-toolchain-arm-generic/lib/gcc/arm-unknown-linux-gnu/4.3.4/libgcc.a(_modsi3.o)
 .debug_abbrev  0x000070e5       0x14 /opt/compiler/glibc-oabi-toolchain-arm-generic/lib/gcc/arm-unknown-linux-gnu/4.3.4/libgcc.a(_dvmd_tls.o)
 .debug_abbrev  0x000070f9       0x14 /opt/compiler/glibc-oabi-toolchain-arm-generic/lib/gcc/arm-unknown-linux-gnu/4.3.4/libgcc.a(_addsubdf3.o)
 .debug_abbrev  0x0000710d       0x14 /opt/compiler/glibc-oabi-toolchain-arm-generic/lib/gcc/arm-unknown-linux-gnu/4.3.4/libgcc.a(_muldivdf3.o)
 .debug_abbrev  0x00007121       0x14 /opt/compiler/glibc-oabi-toolchain-arm-generic/lib/gcc/arm-unknown-linux-gnu/4.3.4/libgcc.a(_cmpdf2.o)
 .debug_abbrev  0x00007135       0x14 /opt/compiler/glibc-oabi-toolchain-arm-generic/lib/gcc/arm-unknown-linux-gnu/4.3.4/libgcc.a(_fixdfsi.o)
 .debug_abbrev  0x00007149       0x14 /opt/compiler/glibc-oabi-toolchain-arm-generic/lib/gcc/arm-unknown-linux-gnu/4.3.4/libgcc.a(_fixunsdfsi.o)
 .debug_abbrev  0x0000715d       0x14 /opt/compiler/glibc-oabi-toolchain-arm-generic/lib/gcc/arm-unknown-linux-gnu/4.3.4/libgcc.a(_truncdfsf2.o)
 .debug_abbrev  0x00007171       0x14 /opt/compiler/glibc-oabi-toolchain-arm-generic/lib/gcc/arm-unknown-linux-gnu/4.3.4/libgcc.a(_addsubsf3.o)
 .debug_abbrev  0x00007185       0x14 /opt/compiler/glibc-oabi-toolchain-arm-generic/lib/gcc/arm-unknown-linux-gnu/4.3.4/libgcc.a(_muldivsf3.o)
 .debug_abbrev  0x00007199       0x14 /opt/compiler/glibc-oabi-toolchain-arm-generic/lib/gcc/arm-unknown-linux-gnu/4.3.4/libgcc.a(_cmpsf2.o)
 .debug_abbrev  0x000071ad       0x14 /opt/compiler/glibc-oabi-toolchain-arm-generic/lib/gcc/arm-unknown-linux-gnu/4.3.4/libgcc.a(_fixsfsi.o)
 .debug_abbrev  0x000071c1       0x14 /opt/compiler/glibc-oabi-toolchain-arm-generic/lib/gcc/arm-unknown-linux-gnu/4.3.4/libgcc.a(_fixunssfsi.o)
 .debug_abbrev  0x000071d5       0x66 /opt/compiler/glibc-oabi-toolchain-arm-generic/lib/gcc/arm-unknown-linux-gnu/4.3.4/libgcc.a(_fixdfdi.o)
 .debug_abbrev  0x0000723b       0x7c /opt/compiler/glibc-oabi-toolchain-arm-generic/lib/gcc/arm-unknown-linux-gnu/4.3.4/libgcc.a(_fixunsdfdi.o)
 .debug_abbrev  0x000072b7      0x17d /opt/compiler/glibc-oabi-toolchain-arm-generic/lib/gcc/arm-unknown-linux-gnu/4.3.4/libgcc.a(_udivdi3.o)
 .debug_abbrev  0x00007434      0x195 /opt/compiler/glibc-oabi-toolchain-arm-generic/lib/gcc/arm-unknown-linux-gnu/4.3.4/libgcc.a(_umoddi3.o)
 .debug_abbrev  0x000075c9       0x6a /opt/compiler/glibc-oabi-toolchain-arm-generic/lib/gcc/arm-unknown-linux-gnu/4.3.4/libgcc.a(_clz.o)
 .debug_abbrev  0x00007633       0x12 /opt/compiler/glibc-oabi-toolchain-arm-generic/arm-unknown-linux-gnu//sys-root/usr/lib/crtn.o

.debug_line     0x00000000    0x23ae2
 *(.debug_line)
 .debug_line    0x00000000       0xae /opt/compiler/glibc-oabi-toolchain-arm-generic/arm-unknown-linux-gnu//sys-root/usr/lib/crti.o
 .debug_line    0x000000ae      0x32b ./zint-master/frontend/getopt.o
 .debug_line    0x000003d9      0x369 ./zint-master/frontend/getopt1.o
 .debug_line    0x00000742      0x4c5 ./zint-master/backend/2of5.o
 .debug_line    0x00000c07      0x496 ./zint-master/backend/auspost.o
 .debug_line    0x0000109d      0x983 ./zint-master/backend/aztec.o
 .debug_line    0x00001a20      0x53d ./zint-master/backend/code.o
 .debug_line    0x00001f5d      0x97c ./zint-master/backend/code1.o
 .debug_line    0x000028d9      0x707 ./zint-master/backend/code128.o
 .debug_line    0x00002fe0      0x5ec ./zint-master/backend/code16k.o
 .debug_line    0x000035cc      0x53f ./zint-master/backend/code49.o
 .debug_line    0x00003b0b      0x4de ./zint-master/backend/common.o
 .debug_line    0x00003fe9      0xaf2 ./zint-master/backend/composite.o
 .debug_line    0x00004adb       0x94 ./zint-master/backend/dllversion.o
 .debug_line    0x00004b6f      0x751 ./zint-master/backend/dmatrix.o
 .debug_line    0x000052c0      0x7e3 ./zint-master/backend/gridmtx.o
 .debug_line    0x00005aa3      0x4e4 ./zint-master/backend/gs1.o
 .debug_line    0x00005f87      0x5d4 ./zint-master/backend/imail.o
 .debug_line    0x0000655b      0x40b ./zint-master/backend/large.o
 .debug_line    0x00006966      0x76f ./zint-master/backend/library.o
 .debug_line    0x000070d5      0x61a ./zint-master/backend/maxicode.o
 .debug_line    0x000076ef      0x49e ./zint-master/backend/medical.o
 .debug_line    0x00007b8d      0x82d ./zint-master/backend/pdf417.o
 .debug_line    0x000083ba      0x4fa ./zint-master/backend/plessey.o
 .debug_line    0x000088b4      0x962 ./zint-master/backend/png.o
 .debug_line    0x00009216      0x57e ./zint-master/backend/postal.o
 .debug_line    0x00009794      0x76a ./zint-master/backend/ps.o
 .debug_line    0x00009efe      0xb25 ./zint-master/backend/qr.o
 .debug_line    0x0000aa23      0x443 ./zint-master/backend/reedsol.o
 .debug_line    0x0000ae66      0x663 ./zint-master/backend/render.o
 .debug_line    0x0000b4c9      0xc7a ./zint-master/backend/rss.o
 .debug_line    0x0000c143      0x6b7 ./zint-master/backend/svg.o
 .debug_line    0x0000c7fa      0x43d ./zint-master/backend/telepen.o
 .debug_line    0x0000cc37      0x5ee ./zint-master/backend/upcean.o
 .debug_line    0x0000d225      0x7ea ./src1/ContactSmartCard.o
 .debug_line    0x0000da0f      0x3cf ./src1/JSON_checker.o
 .debug_line    0x0000ddde       0x83 ./src1/Z_report.o
 .debug_line    0x0000de61      0x7c2 ./src1/cJSON.o
 .debug_line    0x0000e623      0xb66 ./src1/cardinfo.o
 .debug_line    0x0000f189      0x835 ./src1/cl_smartcard_demo.o
 .debug_line    0x0000f9be       0x89 ./src1/configurations.o
 .debug_line    0x0000fa47      0xc56 ./src1/desfire_test.o
 .debug_line    0x0001069d      0x92c ./src1/display.o
 .debug_line    0x00010fc9      0xa22 ./src1/fp_test.o
 .debug_line    0x000119eb      0xc64 ./src1/gprs_demo.o
 .debug_line    0x0001264f      0xbe3 ./src1/jsonread.o
 .debug_line    0x00013232      0x3f1 ./src1/jsontest.o
 .debug_line    0x00013623      0xdac ./src1/keyboart.o
 .debug_line    0x000143cf      0xa14 ./src1/lcd.o
 .debug_line    0x00014de3      0x7ef ./src1/magneticstrip_demo.o
 .debug_line    0x000155d2      0x9c8 ./src1/main.o
 .debug_line    0x00015f9a      0x8d8 ./src1/menu_back_forth.o
 .debug_line    0x00016872      0x903 ./src1/menu_hash.o
 .debug_line    0x00017175      0x7dd ./src1/modem_demo.o
 .debug_line    0x00017952      0x9d3 ./src1/mutwol.o
 .debug_line    0x00018325      0xdb0 ./src1/network_f.o
 .debug_line    0x000190d5      0x930 ./src1/postslib_extern.o
 .debug_line    0x00019a05     0x10ec ./src1/printer_demo.o
 .debug_line    0x0001aaf1      0x8fe ./src1/receipt.o
 .debug_line    0x0001b3ef      0xd5a ./src1/socket_demo.o
 .debug_line    0x0001c149      0xba6 ./src1/sql_functions.o
 .debug_line    0x0001ccef      0x439 ./src1/string_convert.o
 .debug_line    0x0001d128      0x957 ./src1/touch.o
 .debug_line    0x0001da7f      0x88a ./src1/touch_demo.o
 .debug_line    0x0001e309       0x86 ./src1/transaction.o
 .debug_line    0x0001e38f      0x7ea ./src1/uart_demo.o
 .debug_line    0x0001eb79      0x7c3 ./src1/video.o
 .debug_line    0x0001f33c      0x5a5 ./src1/visualstring.o
 .debug_line    0x0001f8e1      0x3cf ./jsonfiles/arraylist.o
 .debug_line    0x0001fcb0      0x602 ./jsonfiles/debug.o
 .debug_line    0x000202b2      0x61d ./jsonfiles/json_object.o
 .debug_line    0x000208cf      0x476 ./jsonfiles/json_object_iterator.o
 .debug_line    0x00020d45      0x7c0 ./jsonfiles/json_tokener.o
 .debug_line    0x00021505      0x777 ./jsonfiles/json_util.o
 .debug_line    0x00021c7c      0x5f9 ./jsonfiles/linkhash.o
 .debug_line    0x00022275      0x451 ./jsonfiles/printbuf.o
 .debug_line    0x000226c6       0xb9 /opt/compiler/glibc-oabi-toolchain-arm-generic/lib/gcc/arm-unknown-linux-gnu/4.3.4/libgcc.a(_udivsi3.o)
 .debug_line    0x0002277f       0xc5 /opt/compiler/glibc-oabi-toolchain-arm-generic/lib/gcc/arm-unknown-linux-gnu/4.3.4/libgcc.a(_divsi3.o)
 .debug_line    0x00022844       0xa2 /opt/compiler/glibc-oabi-toolchain-arm-generic/lib/gcc/arm-unknown-linux-gnu/4.3.4/libgcc.a(_umodsi3.o)
 .debug_line    0x000228e6       0xa8 /opt/compiler/glibc-oabi-toolchain-arm-generic/lib/gcc/arm-unknown-linux-gnu/4.3.4/libgcc.a(_modsi3.o)
 .debug_line    0x0002298e       0x8d /opt/compiler/glibc-oabi-toolchain-arm-generic/lib/gcc/arm-unknown-linux-gnu/4.3.4/libgcc.a(_dvmd_tls.o)
 .debug_line    0x00022a1b      0x218 /opt/compiler/glibc-oabi-toolchain-arm-generic/lib/gcc/arm-unknown-linux-gnu/4.3.4/libgcc.a(_addsubdf3.o)
 .debug_line    0x00022c33      0x257 /opt/compiler/glibc-oabi-toolchain-arm-generic/lib/gcc/arm-unknown-linux-gnu/4.3.4/libgcc.a(_muldivdf3.o)
 .debug_line    0x00022e8a      0x11f /opt/compiler/glibc-oabi-toolchain-arm-generic/lib/gcc/arm-unknown-linux-gnu/4.3.4/libgcc.a(_cmpdf2.o)
 .debug_line    0x00022fa9       0xa2 /opt/compiler/glibc-oabi-toolchain-arm-generic/lib/gcc/arm-unknown-linux-gnu/4.3.4/libgcc.a(_fixdfsi.o)
 .debug_line    0x0002304b       0xa0 /opt/compiler/glibc-oabi-toolchain-arm-generic/lib/gcc/arm-unknown-linux-gnu/4.3.4/libgcc.a(_fixunsdfsi.o)
 .debug_line    0x000230eb       0xb3 /opt/compiler/glibc-oabi-toolchain-arm-generic/lib/gcc/arm-unknown-linux-gnu/4.3.4/libgcc.a(_truncdfsf2.o)
 .debug_line    0x0002319e      0x143 /opt/compiler/glibc-oabi-toolchain-arm-generic/lib/gcc/arm-unknown-linux-gnu/4.3.4/libgcc.a(_addsubsf3.o)
 .debug_line    0x000232e1      0x158 /opt/compiler/glibc-oabi-toolchain-arm-generic/lib/gcc/arm-unknown-linux-gnu/4.3.4/libgcc.a(_muldivsf3.o)
 .debug_line    0x00023439      0x113 /opt/compiler/glibc-oabi-toolchain-arm-generic/lib/gcc/arm-unknown-linux-gnu/4.3.4/libgcc.a(_cmpsf2.o)
 .debug_line    0x0002354c       0xa2 /opt/compiler/glibc-oabi-toolchain-arm-generic/lib/gcc/arm-unknown-linux-gnu/4.3.4/libgcc.a(_fixsfsi.o)
 .debug_line    0x000235ee       0xa0 /opt/compiler/glibc-oabi-toolchain-arm-generic/lib/gcc/arm-unknown-linux-gnu/4.3.4/libgcc.a(_fixunssfsi.o)
 .debug_line    0x0002368e       0x93 /opt/compiler/glibc-oabi-toolchain-arm-generic/lib/gcc/arm-unknown-linux-gnu/4.3.4/libgcc.a(_fixdfdi.o)
 .debug_line    0x00023721       0x92 /opt/compiler/glibc-oabi-toolchain-arm-generic/lib/gcc/arm-unknown-linux-gnu/4.3.4/libgcc.a(_fixunsdfdi.o)
 .debug_line    0x000237b3      0x107 /opt/compiler/glibc-oabi-toolchain-arm-generic/lib/gcc/arm-unknown-linux-gnu/4.3.4/libgcc.a(_udivdi3.o)
 .debug_line    0x000238ba      0x115 /opt/compiler/glibc-oabi-toolchain-arm-generic/lib/gcc/arm-unknown-linux-gnu/4.3.4/libgcc.a(_umoddi3.o)
 .debug_line    0x000239cf       0x7b /opt/compiler/glibc-oabi-toolchain-arm-generic/lib/gcc/arm-unknown-linux-gnu/4.3.4/libgcc.a(_clz.o)
 .debug_line    0x00023a4a       0x98 /opt/compiler/glibc-oabi-toolchain-arm-generic/arm-unknown-linux-gnu//sys-root/usr/lib/crtn.o

.debug_frame    0x00000000     0x5850
 *(.debug_frame)
 .debug_frame   0x00000000      0x110 ./zint-master/backend/2of5.o
 .debug_frame   0x00000110       0x50 ./zint-master/backend/auspost.o
 .debug_frame   0x00000160       0xb0 ./zint-master/backend/aztec.o
 .debug_frame   0x00000210      0x130 ./zint-master/backend/code.o
 .debug_frame   0x00000340      0x158 ./zint-master/backend/code1.o
 .debug_frame   0x00000498      0x150 ./zint-master/backend/code128.o
 .debug_frame   0x000005e8       0xd0 ./zint-master/backend/code16k.o
 .debug_frame   0x000006b8       0x30 ./zint-master/backend/code49.o
 .debug_frame   0x000006e8      0x2b8 ./zint-master/backend/common.o
 .debug_frame   0x000009a0      0x164 ./zint-master/backend/composite.o
 .debug_frame   0x00000b04      0x214 ./zint-master/backend/dmatrix.o
 .debug_frame   0x00000d18      0x150 ./zint-master/backend/gridmtx.o
 .debug_frame   0x00000e68       0x70 ./zint-master/backend/gs1.o
 .debug_frame   0x00000ed8       0x70 ./zint-master/backend/imail.o
 .debug_frame   0x00000f48       0xf0 ./zint-master/backend/large.o
 .debug_frame   0x00001038      0x270 ./zint-master/backend/library.o
 .debug_frame   0x000012a8      0x110 ./zint-master/backend/maxicode.o
 .debug_frame   0x000013b8       0xb0 ./zint-master/backend/medical.o
 .debug_frame   0x00001468      0x13c ./zint-master/backend/pdf417.o
 .debug_frame   0x000015a4       0xf0 ./zint-master/backend/plessey.o
 .debug_frame   0x00001694      0x1f8 ./zint-master/backend/png.o
 .debug_frame   0x0000188c      0x190 ./zint-master/backend/postal.o
 .debug_frame   0x00001a1c       0x3c ./zint-master/backend/ps.o
 .debug_frame   0x00001a58      0x390 ./zint-master/backend/qr.o
 .debug_frame   0x00001de8       0xbc ./zint-master/backend/reedsol.o
 .debug_frame   0x00001ea4      0x11c ./zint-master/backend/render.o
 .debug_frame   0x00001fc0       0xf0 ./zint-master/backend/rss.o
 .debug_frame   0x000020b0       0x3c ./zint-master/backend/svg.o
 .debug_frame   0x000020ec       0x50 ./zint-master/backend/telepen.o
 .debug_frame   0x0000213c      0x1b0 ./zint-master/backend/upcean.o
 .debug_frame   0x000022ec       0x30 ./src1/ContactSmartCard.o
 .debug_frame   0x0000231c       0xd0 ./src1/JSON_checker.o
 .debug_frame   0x000023ec      0x694 ./src1/cJSON.o
 .debug_frame   0x00002a80       0x30 ./src1/cardinfo.o
 .debug_frame   0x00002ab0       0x50 ./src1/cl_smartcard_demo.o
 .debug_frame   0x00002b00       0xd0 ./src1/desfire_test.o
 .debug_frame   0x00002bd0       0x74 ./src1/display.o
 .debug_frame   0x00002c44       0x30 ./src1/fp_test.o
 .debug_frame   0x00002c74      0x454 ./src1/gprs_demo.o
 .debug_frame   0x000030c8      0x154 ./src1/jsonread.o
 .debug_frame   0x0000321c       0x30 ./src1/jsontest.o
 .debug_frame   0x0000324c      0x238 ./src1/keyboart.o
 .debug_frame   0x00003484      0x3ac ./src1/lcd.o
 .debug_frame   0x00003830       0x30 ./src1/magneticstrip_demo.o
 .debug_frame   0x00003860       0x70 ./src1/main.o
 .debug_frame   0x000038d0       0xd0 ./src1/menu_back_forth.o
 .debug_frame   0x000039a0      0x1d4 ./src1/menu_hash.o
 .debug_frame   0x00003b74       0x30 ./src1/modem_demo.o
 .debug_frame   0x00003ba4       0x50 ./src1/mutwol.o
 .debug_frame   0x00003bf4      0x21c ./src1/network_f.o
 .debug_frame   0x00003e10      0x2f4 ./src1/postslib_extern.o
 .debug_frame   0x00004104      0x178 ./src1/printer_demo.o
 .debug_frame   0x0000427c       0x90 ./src1/receipt.o
 .debug_frame   0x0000430c      0x170 ./src1/socket_demo.o
 .debug_frame   0x0000447c      0x1f8 ./src1/sql_functions.o
 .debug_frame   0x00004674       0x50 ./src1/string_convert.o
 .debug_frame   0x000046c4      0x130 ./src1/touch.o
 .debug_frame   0x000047f4       0x30 ./src1/touch_demo.o
 .debug_frame   0x00004824       0x30 ./src1/uart_demo.o
 .debug_frame   0x00004854       0x30 ./src1/video.o
 .debug_frame   0x00004884       0x70 ./src1/visualstring.o
 .debug_frame   0x000048f4      0x110 ./jsonfiles/arraylist.o
 .debug_frame   0x00004a04      0x110 ./jsonfiles/debug.o
 .debug_frame   0x00004b14      0x5d0 ./jsonfiles/json_object.o
 .debug_frame   0x000050e4       0xf0 ./jsonfiles/json_object_iterator.o
 .debug_frame   0x000051d4      0x134 ./jsonfiles/json_tokener.o
 .debug_frame   0x00005308       0xb0 ./jsonfiles/json_util.o
 .debug_frame   0x000053b8      0x21c ./jsonfiles/linkhash.o
 .debug_frame   0x000055d4      0x114 ./jsonfiles/printbuf.o
 .debug_frame   0x000056e8       0x28 /opt/compiler/glibc-oabi-toolchain-arm-generic/lib/gcc/arm-unknown-linux-gnu/4.3.4/libgcc.a(_udivsi3.o)
 .debug_frame   0x00005710       0x28 /opt/compiler/glibc-oabi-toolchain-arm-generic/lib/gcc/arm-unknown-linux-gnu/4.3.4/libgcc.a(_divsi3.o)
 .debug_frame   0x00005738       0x28 /opt/compiler/glibc-oabi-toolchain-arm-generic/lib/gcc/arm-unknown-linux-gnu/4.3.4/libgcc.a(_umodsi3.o)
 .debug_frame   0x00005760       0x28 /opt/compiler/glibc-oabi-toolchain-arm-generic/lib/gcc/arm-unknown-linux-gnu/4.3.4/libgcc.a(_modsi3.o)
 .debug_frame   0x00005788       0x2c /opt/compiler/glibc-oabi-toolchain-arm-generic/lib/gcc/arm-unknown-linux-gnu/4.3.4/libgcc.a(_fixdfdi.o)
 .debug_frame   0x000057b4       0x2c /opt/compiler/glibc-oabi-toolchain-arm-generic/lib/gcc/arm-unknown-linux-gnu/4.3.4/libgcc.a(_fixunsdfdi.o)
 .debug_frame   0x000057e0       0x38 /opt/compiler/glibc-oabi-toolchain-arm-generic/lib/gcc/arm-unknown-linux-gnu/4.3.4/libgcc.a(_udivdi3.o)
 .debug_frame   0x00005818       0x38 /opt/compiler/glibc-oabi-toolchain-arm-generic/lib/gcc/arm-unknown-linux-gnu/4.3.4/libgcc.a(_umoddi3.o)

.debug_str      0x00000000    0x13a90
 *(.debug_str)
 .debug_str     0x00000000       0x9f ./zint-master/frontend/getopt.o
                                 0xd8 (size before relaxing)
 .debug_str     0x0000009f       0x22 ./zint-master/frontend/getopt1.o
                                 0xd9 (size before relaxing)
 .debug_str     0x000000c1      0x247 ./zint-master/backend/2of5.o
                                0x36b (size before relaxing)
 .debug_str     0x00000308       0x8b ./zint-master/backend/auspost.o
                                0x320 (size before relaxing)
 .debug_str     0x00000393      0x2b9 ./zint-master/backend/aztec.o
                                0x5b3 (size before relaxing)
 .debug_str     0x0000064c       0xe3 ./zint-master/backend/code.o
                                0x3bc (size before relaxing)
 .debug_str     0x0000072f      0x2db ./zint-master/backend/code1.o
                                0x5b9 (size before relaxing)
 .debug_str     0x00000a0a      0x14a ./zint-master/backend/code128.o
                                0x417 (size before relaxing)
 .debug_str     0x00000b54      0x124 ./zint-master/backend/code16k.o
                                0x43b (size before relaxing)
 .debug_str     0x00000c78       0xfb ./zint-master/backend/code49.o
                                0x37e (size before relaxing)
 .debug_str     0x00000d73      0x119 ./zint-master/backend/common.o
                                0x3fb (size before relaxing)
 .debug_str     0x00000e8c      0x38a ./zint-master/backend/composite.o
                                0x6cb (size before relaxing)
 .debug_str     0x00001216       0x24 ./zint-master/backend/dllversion.o
                                 0x85 (size before relaxing)
 .debug_str     0x0000123a      0x21e ./zint-master/backend/dmatrix.o
                                0x5cd (size before relaxing)
 .debug_str     0x00001458      0x276 ./zint-master/backend/gridmtx.o
                                0x5a8 (size before relaxing)
 .debug_str     0x000016ce       0xbb ./zint-master/backend/gs1.o
                                0x36d (size before relaxing)
 .debug_str     0x00001789       0xe8 ./zint-master/backend/imail.o
                                0x3a0 (size before relaxing)
 .debug_str     0x00001871       0x9f ./zint-master/backend/large.o
                                0x198 (size before relaxing)
 .debug_str     0x00001910      0x31e ./zint-master/backend/library.o
                                0x61f (size before relaxing)
 .debug_str     0x00001c2e      0x178 ./zint-master/backend/maxicode.o
                                0x439 (size before relaxing)
 .debug_str     0x00001da6       0xba ./zint-master/backend/medical.o
                                0x367 (size before relaxing)
 .debug_str     0x00001e60      0x116 ./zint-master/backend/pdf417.o
                                0x4f5 (size before relaxing)
 .debug_str     0x00001f76       0xc4 ./zint-master/backend/plessey.o
                                0x359 (size before relaxing)
 .debug_str     0x0000203a      0xf8d ./zint-master/backend/png.o
                               0x15bc (size before relaxing)
 .debug_str     0x00002fc7       0xf2 ./zint-master/backend/postal.o
                                0x3dc (size before relaxing)
 .debug_str     0x000030b9      0x120 ./zint-master/backend/ps.o
                                0x60d (size before relaxing)
 .debug_str     0x000031d9      0x451 ./zint-master/backend/qr.o
                                0x87a (size before relaxing)
 .debug_str     0x0000362a       0x86 ./zint-master/backend/reedsol.o
                                0x152 (size before relaxing)
 .debug_str     0x000036b0      0x1b7 ./zint-master/backend/render.o
                                0x595 (size before relaxing)
 .debug_str     0x00003867      0x3c9 ./zint-master/backend/rss.o
                                0x795 (size before relaxing)
 .debug_str     0x00003c30       0x2b ./zint-master/backend/svg.o
                                0x60f (size before relaxing)
 .debug_str     0x00003c5b       0x4b ./zint-master/backend/telepen.o
                                0x2de (size before relaxing)
 .debug_str     0x00003ca6      0x14c ./zint-master/backend/upcean.o
                                0x46c (size before relaxing)
 .debug_str     0x00003df2     0x2e7e ./src1/ContactSmartCard.o
                               0x2fb4 (size before relaxing)
 .debug_str     0x00006c70      0x1f5 ./src1/JSON_checker.o
                                0x2d1 (size before relaxing)
 .debug_str     0x00006e65       0x13 ./src1/Z_report.o
                                 0x74 (size before relaxing)
 .debug_str     0x00006e78      0x47e ./src1/cJSON.o
                                0x5fa (size before relaxing)
 .debug_str     0x000072f6      0xc89 ./src1/cardinfo.o
                               0x3ccd (size before relaxing)
 .debug_str     0x00007f7f       0x93 ./src1/cl_smartcard_demo.o
                               0x3024 (size before relaxing)
 .debug_str     0x00008012       0x19 ./src1/configurations.o
                                 0x7a (size before relaxing)
 .debug_str     0x0000802b      0x11f ./src1/desfire_test.o
                               0x3d83 (size before relaxing)
 .debug_str     0x0000814a     0x3917 ./src1/display.o
                               0x6ba7 (size before relaxing)
 .debug_str     0x0000ba61      0x794 ./src1/fp_test.o
                               0x41f2 (size before relaxing)
 .debug_str     0x0000c1f5     0x2253 ./src1/gprs_demo.o
                               0x5e47 (size before relaxing)
 .debug_str     0x0000e448      0x29c ./src1/jsonread.o
                               0x3e73 (size before relaxing)
 .debug_str     0x0000e6e4       0x89 ./src1/jsontest.o
                                0x271 (size before relaxing)
 .debug_str     0x0000e76d      0x3f6 ./src1/keyboart.o
                               0x4026 (size before relaxing)
 .debug_str     0x0000eb63      0x2c9 ./src1/lcd.o
                               0x6efa (size before relaxing)
 .debug_str     0x0000ee2c       0x9b ./src1/magneticstrip_demo.o
                               0x3017 (size before relaxing)
 .debug_str     0x0000eec7       0x36 ./src1/main.o
                               0x3207 (size before relaxing)
 .debug_str     0x0000eefd      0x120 ./src1/menu_back_forth.o
                               0x39d7 (size before relaxing)
 .debug_str     0x0000f01d      0x175 ./src1/menu_hash.o
                               0x3ad9 (size before relaxing)
 .debug_str     0x0000f192       0xe6 ./src1/modem_demo.o
                               0x3045 (size before relaxing)
 .debug_str     0x0000f278       0x5f ./src1/mutwol.o
                               0x31e5 (size before relaxing)
 .debug_str     0x0000f2d7      0x419 ./src1/network_f.o
                               0x3f6d (size before relaxing)
 .debug_str     0x0000f6f0      0x2e3 ./src1/postslib_extern.o
                               0x32c2 (size before relaxing)
 .debug_str     0x0000f9d3      0x1a0 ./src1/printer_demo.o
                               0x773d (size before relaxing)
 .debug_str     0x0000fb73       0x89 ./src1/receipt.o
                               0x3abb (size before relaxing)
 .debug_str     0x0000fbfc     0x24d5 ./src1/socket_demo.o
                               0x5af5 (size before relaxing)
 .debug_str     0x000120d1      0x285 ./src1/sql_functions.o
                               0x3e79 (size before relaxing)
 .debug_str     0x00012356       0x2f ./src1/string_convert.o
                                 0xfd (size before relaxing)
 .debug_str     0x00012385      0x260 ./src1/touch.o
                               0x6b86 (size before relaxing)
 .debug_str     0x000125e5       0x39 ./src1/touch_demo.o
                               0x3ffe (size before relaxing)
 .debug_str     0x0001261e       0x16 ./src1/transaction.o
                                 0x77 (size before relaxing)
 .debug_str     0x00012634       0x1e ./src1/uart_demo.o
                               0x2fa2 (size before relaxing)
 .debug_str     0x00012652       0x8b ./src1/video.o
                               0x6aea (size before relaxing)
 .debug_str     0x000126dd      0x10a ./src1/visualstring.o
                                0x1d5 (size before relaxing)
 .debug_str     0x000127e7       0xd9 ./jsonfiles/arraylist.o
                                0x1af (size before relaxing)
 .debug_str     0x000128c0       0x60 ./jsonfiles/debug.o
                                0x2e4 (size before relaxing)
 .debug_str     0x00012920      0x5b0 ./jsonfiles/json_object.o
                                0x7e0 (size before relaxing)
 .debug_str     0x00012ed0      0x116 ./jsonfiles/json_object_iterator.o
                                0x3e7 (size before relaxing)
 .debug_str     0x00012fe6      0x66c ./jsonfiles/json_tokener.o
                                0x7ff (size before relaxing)
 .debug_str     0x00013652       0xef ./jsonfiles/json_util.o
                                0x2d9 (size before relaxing)
 .debug_str     0x00013741      0x11a ./jsonfiles/linkhash.o
                                0x2cb (size before relaxing)
 .debug_str     0x0001385b       0xb7 ./jsonfiles/printbuf.o
                                0x1c0 (size before relaxing)
 .debug_str     0x00013912       0xe6 /opt/compiler/glibc-oabi-toolchain-arm-generic/lib/gcc/arm-unknown-linux-gnu/4.3.4/libgcc.a(_fixdfdi.o)
                                0x18f (size before relaxing)
 .debug_str     0x000139f8       0x1d /opt/compiler/glibc-oabi-toolchain-arm-generic/lib/gcc/arm-unknown-linux-gnu/4.3.4/libgcc.a(_fixunsdfdi.o)
                                0x19b (size before relaxing)
 .debug_str     0x00013a15       0x71 /opt/compiler/glibc-oabi-toolchain-arm-generic/lib/gcc/arm-unknown-linux-gnu/4.3.4/libgcc.a(_udivdi3.o)
                                0x206 (size before relaxing)
 .debug_str     0x00013a86        0xa /opt/compiler/glibc-oabi-toolchain-arm-generic/lib/gcc/arm-unknown-linux-gnu/4.3.4/libgcc.a(_umoddi3.o)
                                0x206 (size before relaxing)
 .debug_str     0x00000000      0x189 /opt/compiler/glibc-oabi-toolchain-arm-generic/lib/gcc/arm-unknown-linux-gnu/4.3.4/libgcc.a(_clz.o)

.debug_loc      0x00000000     0x78af
 *(.debug_loc)
 .debug_loc     0x00000000      0x150 ./zint-master/backend/2of5.o
 .debug_loc     0x00000150       0x54 ./zint-master/backend/auspost.o
 .debug_loc     0x000001a4       0xd2 ./zint-master/backend/aztec.o
 .debug_loc     0x00000276      0x17a ./zint-master/backend/code.o
 .debug_loc     0x000003f0      0x1a4 ./zint-master/backend/code1.o
 .debug_loc     0x00000594      0x1a4 ./zint-master/backend/code128.o
 .debug_loc     0x00000738       0xfc ./zint-master/backend/code16k.o
 .debug_loc     0x00000834       0x2a ./zint-master/backend/code49.o
 .debug_loc     0x0000085e      0x372 ./zint-master/backend/common.o
 .debug_loc     0x00000bd0      0x1a4 ./zint-master/backend/composite.o
 .debug_loc     0x00000d74      0x2a0 ./zint-master/backend/dmatrix.o
 .debug_loc     0x00001014      0x1a4 ./zint-master/backend/gridmtx.o
 .debug_loc     0x000011b8       0x7e ./zint-master/backend/gs1.o
 .debug_loc     0x00001236       0x7e ./zint-master/backend/imail.o
 .debug_loc     0x000012b4      0x126 ./zint-master/backend/large.o
 .debug_loc     0x000013da      0x31e ./zint-master/backend/library.o
 .debug_loc     0x000016f8      0x150 ./zint-master/backend/maxicode.o
 .debug_loc     0x00001848       0xd2 ./zint-master/backend/medical.o
 .debug_loc     0x0000191a      0x17a ./zint-master/backend/pdf417.o
 .debug_loc     0x00001a94      0x126 ./zint-master/backend/plessey.o
 .debug_loc     0x00001bba      0x276 ./zint-master/backend/png.o
 .debug_loc     0x00001e30      0x1f8 ./zint-master/backend/postal.o
 .debug_loc     0x00002028       0x2a ./zint-master/backend/ps.o
 .debug_loc     0x00002052      0x498 ./zint-master/backend/qr.o
 .debug_loc     0x000024ea       0xd2 ./zint-master/backend/reedsol.o
 .debug_loc     0x000025bc      0x150 ./zint-master/backend/render.o
 .debug_loc     0x0000270c      0x126 ./zint-master/backend/rss.o
 .debug_loc     0x00002832       0x2a ./zint-master/backend/svg.o
 .debug_loc     0x0000285c       0x54 ./zint-master/backend/telepen.o
 .debug_loc     0x000028b0      0x222 ./zint-master/backend/upcean.o
 .debug_loc     0x00002ad2       0x2a ./src1/ContactSmartCard.o
 .debug_loc     0x00002afc       0xfc ./src1/JSON_checker.o
 .debug_loc     0x00002bf8      0x888 ./src1/cJSON.o
 .debug_loc     0x00003480       0x2a ./src1/cardinfo.o
 .debug_loc     0x000034aa       0x54 ./src1/cl_smartcard_demo.o
 .debug_loc     0x000034fe       0xfc ./src1/desfire_test.o
 .debug_loc     0x000035fa       0x7e ./src1/display.o
 .debug_loc     0x00003678       0x2a ./src1/fp_test.o
 .debug_loc     0x000036a2      0x594 ./src1/gprs_demo.o
 .debug_loc     0x00003c36      0x1a4 ./src1/jsonread.o
 .debug_loc     0x00003dda       0x2a ./src1/jsontest.o
 .debug_loc     0x00003e04      0x2ca ./src1/keyboart.o
 .debug_loc     0x000040ce      0x498 ./src1/lcd.o
 .debug_loc     0x00004566       0x2a ./src1/magneticstrip_demo.o
 .debug_loc     0x00004590       0x7e ./src1/main.o
 .debug_loc     0x0000460e       0xfc ./src1/menu_back_forth.o
 .debug_loc     0x0000470a      0x24c ./src1/menu_hash.o
 .debug_loc     0x00004956       0x2a ./src1/modem_demo.o
 .debug_loc     0x00004980       0x54 ./src1/mutwol.o
 .debug_loc     0x000049d4      0x2a0 ./src1/network_f.o
 .debug_loc     0x00004c74      0x3c6 ./src1/postslib_extern.o
 .debug_loc     0x0000503a      0x1ce ./src1/printer_demo.o
 .debug_loc     0x00005208       0xa8 ./src1/receipt.o
 .debug_loc     0x000052b0      0x1ce ./src1/socket_demo.o
 .debug_loc     0x0000547e      0x276 ./src1/sql_functions.o
 .debug_loc     0x000056f4       0x54 ./src1/string_convert.o
 .debug_loc     0x00005748      0x17a ./src1/touch.o
 .debug_loc     0x000058c2       0x2a ./src1/touch_demo.o
 .debug_loc     0x000058ec       0x2a ./src1/uart_demo.o
 .debug_loc     0x00005916       0x2a ./src1/video.o
 .debug_loc     0x00005940       0x7e ./src1/visualstring.o
 .debug_loc     0x000059be      0x150 ./jsonfiles/arraylist.o
 .debug_loc     0x00005b0e      0x126 ./jsonfiles/debug.o
 .debug_loc     0x00005c34      0x78c ./jsonfiles/json_object.o
 .debug_loc     0x000063c0      0x126 ./jsonfiles/json_object_iterator.o
 .debug_loc     0x000064e6      0x17a ./jsonfiles/json_tokener.o
 .debug_loc     0x00006660       0xd2 ./jsonfiles/json_util.o
 .debug_loc     0x00006732      0x2a0 ./jsonfiles/linkhash.o
 .debug_loc     0x000069d2      0x150 ./jsonfiles/printbuf.o
 .debug_loc     0x00006b22       0x67 /opt/compiler/glibc-oabi-toolchain-arm-generic/lib/gcc/arm-unknown-linux-gnu/4.3.4/libgcc.a(_fixdfdi.o)
 .debug_loc     0x00006b89       0x57 /opt/compiler/glibc-oabi-toolchain-arm-generic/lib/gcc/arm-unknown-linux-gnu/4.3.4/libgcc.a(_fixunsdfdi.o)
 .debug_loc     0x00006be0      0x7bf /opt/compiler/glibc-oabi-toolchain-arm-generic/lib/gcc/arm-unknown-linux-gnu/4.3.4/libgcc.a(_udivdi3.o)
 .debug_loc     0x0000739f      0x510 /opt/compiler/glibc-oabi-toolchain-arm-generic/lib/gcc/arm-unknown-linux-gnu/4.3.4/libgcc.a(_umoddi3.o)

.debug_macinfo  0x00000000   0x335ee1
 *(.debug_macinfo)
 .debug_macinfo
                0x00000000     0x355e ./zint-master/frontend/getopt.o
 .debug_macinfo
                0x0000355e     0x4081 ./zint-master/frontend/getopt1.o
 .debug_macinfo
                0x000075df     0x510f ./zint-master/backend/2of5.o
 .debug_macinfo
                0x0000c6ee     0x516d ./zint-master/backend/auspost.o
 .debug_macinfo
                0x0001185b     0x5164 ./zint-master/backend/aztec.o
 .debug_macinfo
                0x000169bf     0x5161 ./zint-master/backend/code.o
 .debug_macinfo
                0x0001bb20     0x424e ./zint-master/backend/code1.o
 .debug_macinfo
                0x0001fd6e     0x51bf ./zint-master/backend/code128.o
 .debug_macinfo
                0x00024f2d     0x5196 ./zint-master/backend/code16k.o
 .debug_macinfo
                0x0002a0c3     0x514c ./zint-master/backend/code49.o
 .debug_macinfo
                0x0002f20f     0x510f ./zint-master/backend/common.o
 .debug_macinfo
                0x0003431e     0x590f ./zint-master/backend/composite.o
 .debug_macinfo
                0x00039c2d      0xc8c ./zint-master/backend/dllversion.o
 .debug_macinfo
                0x0003a8b9     0x55ff ./zint-master/backend/dmatrix.o
 .debug_macinfo
                0x0003feb8     0x51d4 ./zint-master/backend/gridmtx.o
 .debug_macinfo
                0x0004508c     0x511e ./zint-master/backend/gs1.o
 .debug_macinfo
                0x0004a1aa     0x5137 ./zint-master/backend/imail.o
 .debug_macinfo
                0x0004f2e1     0x3e35 ./zint-master/backend/large.o
 .debug_macinfo
                0x00053116     0x5937 ./zint-master/backend/library.o
 .debug_macinfo
                0x00058a4d     0x42f1 ./zint-master/backend/maxicode.o
 .debug_macinfo
                0x0005cd3e     0x5130 ./zint-master/backend/medical.o
 .debug_macinfo
                0x00061e6e     0x609c ./zint-master/backend/pdf417.o
 .debug_macinfo
                0x00067f0a     0x5129 ./zint-master/backend/plessey.o
 .debug_macinfo
                0x0006d033     0xc9fb ./zint-master/backend/png.o
 .debug_macinfo
                0x00079a2e     0x51c8 ./zint-master/backend/postal.o
 .debug_macinfo
                0x0007ebf6     0x52e4 ./zint-master/backend/ps.o
 .debug_macinfo
                0x00083eda     0x3ea9 ./zint-master/backend/qr.o
 .debug_macinfo
                0x00087d83     0x4786 ./zint-master/backend/reedsol.o
 .debug_macinfo
                0x0008c509     0x52dc ./zint-master/backend/render.o
 .debug_macinfo
                0x000917e5     0x518d ./zint-master/backend/rss.o
 .debug_macinfo
                0x00096972     0x52e4 ./zint-master/backend/svg.o
 .debug_macinfo
                0x0009bc56     0x5126 ./zint-master/backend/telepen.o
 .debug_macinfo
                0x000a0d7c     0x513c ./zint-master/backend/upcean.o
 .debug_macinfo
                0x000a5eb8     0xd1ec ./src1/ContactSmartCard.o
 .debug_macinfo
                0x000b30a4     0x36b6 ./src1/JSON_checker.o
 .debug_macinfo
                0x000b675a      0xc8c ./src1/Z_report.o
 .debug_macinfo
                0x000b73e6     0x6716 ./src1/cJSON.o
 .debug_macinfo
                0x000bdafc    0x19007 ./src1/cardinfo.o
 .debug_macinfo
                0x000d6b03     0xd3bf ./src1/cl_smartcard_demo.o
 .debug_macinfo
                0x000e3ec2      0xc8c ./src1/configurations.o
 .debug_macinfo
                0x000e4b4e    0x18fef ./src1/desfire_test.o
 .debug_macinfo
                0x000fdb3d     0xe00f ./src1/display.o
 .debug_macinfo
                0x0010bb4c    0x13d33 ./src1/fp_test.o
 .debug_macinfo
                0x0011f87f    0x1afa2 ./src1/gprs_demo.o
 .debug_macinfo
                0x0013a821    0x108e9 ./src1/jsonread.o
 .debug_macinfo
                0x0014b10a     0x4b35 ./src1/jsontest.o
 .debug_macinfo
                0x0014fc3f    0x16451 ./src1/keyboart.o
 .debug_macinfo
                0x00166090     0xd92e ./src1/lcd.o
 .debug_macinfo
                0x001739be     0xd92b ./src1/magneticstrip_demo.o
 .debug_macinfo
                0x001812e9    0x12473 ./src1/main.o
 .debug_macinfo
                0x0019375c    0x10372 ./src1/menu_back_forth.o
 .debug_macinfo
                0x001a3ace    0x10591 ./src1/menu_hash.o
 .debug_macinfo
                0x001b405f     0xd71e ./src1/modem_demo.o
 .debug_macinfo
                0x001c177d    0x1201a ./src1/mutwol.o
 .debug_macinfo
                0x001d3797    0x1807f ./src1/network_f.o
 .debug_macinfo
                0x001eb816     0xde3c ./src1/postslib_extern.o
 .debug_macinfo
                0x001f9652    0x148b3 ./src1/printer_demo.o
 .debug_macinfo
                0x0020df05    0x10376 ./src1/receipt.o
 .debug_macinfo
                0x0021e27b    0x823e0 ./src1/socket_demo.o
 .debug_macinfo
                0x002a065b    0x12f7c ./src1/sql_functions.o
 .debug_macinfo
                0x002b35d7     0x4a62 ./src1/string_convert.o
 .debug_macinfo
                0x002b8039    0x10c47 ./src1/touch.o
 .debug_macinfo
                0x002c8c80     0xf822 ./src1/touch_demo.o
 .debug_macinfo
                0x002d84a2      0xc8c ./src1/transaction.o
 .debug_macinfo
                0x002d912e     0xdd8a ./src1/uart_demo.o
 .debug_macinfo
                0x002e6eb8     0xcdd4 ./src1/video.o
 .debug_macinfo
                0x002f3c8c     0x8f76 ./src1/visualstring.o
 .debug_macinfo
                0x002fcc02     0x3b25 ./jsonfiles/arraylist.o
 .debug_macinfo
                0x00300727     0x93fc ./jsonfiles/debug.o
 .debug_macinfo
                0x00309b23     0x6aad ./jsonfiles/json_object.o
 .debug_macinfo
                0x003105d0     0x57c5 ./jsonfiles/json_object_iterator.o
 .debug_macinfo
                0x00315d95     0x7d6a ./jsonfiles/json_tokener.o
 .debug_macinfo
                0x0031daff     0xc30c ./jsonfiles/json_util.o
 .debug_macinfo
                0x00329e0b     0x714d ./jsonfiles/linkhash.o
 .debug_macinfo
                0x00330f58     0x4f89 ./jsonfiles/printbuf.o

.debug_weaknames
 *(.debug_weaknames)

.debug_funcnames
 *(.debug_funcnames)

.debug_typenames
 *(.debug_typenames)

.debug_varnames
 *(.debug_varnames)

.debug_pubtypes
 *(.debug_pubtypes)

.debug_ranges   0x00000000      0x1d0
 *(.debug_ranges)
 .debug_ranges  0x00000000       0x28 /opt/compiler/glibc-oabi-toolchain-arm-generic/arm-unknown-linux-gnu//sys-root/usr/lib/crti.o
 .debug_ranges  0x00000028       0xb0 /opt/compiler/glibc-oabi-toolchain-arm-generic/lib/gcc/arm-unknown-linux-gnu/4.3.4/libgcc.a(_udivdi3.o)
 .debug_ranges  0x000000d8       0xd8 /opt/compiler/glibc-oabi-toolchain-arm-generic/lib/gcc/arm-unknown-linux-gnu/4.3.4/libgcc.a(_umoddi3.o)
 .debug_ranges  0x000001b0       0x20 /opt/compiler/glibc-oabi-toolchain-arm-generic/arm-unknown-linux-gnu//sys-root/usr/lib/crtn.o

.gnu.attributes
 *(.gnu.attributes)

.note.gnu.arm.ident
 *(.note.gnu.arm.ident)

/DISCARD/
 *(.note.GNU-stack)
 *(.gnu_debuglink)
OUTPUT(Demotwo elf32-littlearm)

.ARM.attributes
                0x00000000       0x10
 .ARM.attributes
                0x00000000       0x10 /opt/compiler/glibc-oabi-toolchain-arm-generic/arm-unknown-linux-gnu//sys-root/usr/lib/crt1.o
 .ARM.attributes
                0x00000010       0x10 /opt/compiler/glibc-oabi-toolchain-arm-generic/arm-unknown-linux-gnu//sys-root/usr/lib/crti.o
 .ARM.attributes
                0x00000020       0x10 /opt/compiler/glibc-oabi-toolchain-arm-generic/lib/gcc/arm-unknown-linux-gnu/4.3.4/crtbegin.o
 .ARM.attributes
                0x00000030       0x10 ./zint-master/frontend/getopt.o
 .ARM.attributes
                0x00000040       0x10 ./zint-master/frontend/getopt1.o
 .ARM.attributes
                0x00000050       0x10 ./zint-master/backend/2of5.o
 .ARM.attributes
                0x00000060       0x10 ./zint-master/backend/auspost.o
 .ARM.attributes
                0x00000070       0x10 ./zint-master/backend/aztec.o
 .ARM.attributes
                0x00000080       0x10 ./zint-master/backend/code.o
 .ARM.attributes
                0x00000090       0x10 ./zint-master/backend/code1.o
 .ARM.attributes
                0x000000a0       0x10 ./zint-master/backend/code128.o
 .ARM.attributes
                0x000000b0       0x10 ./zint-master/backend/code16k.o
 .ARM.attributes
                0x000000c0       0x10 ./zint-master/backend/code49.o
 .ARM.attributes
                0x000000d0       0x10 ./zint-master/backend/common.o
 .ARM.attributes
                0x000000e0       0x10 ./zint-master/backend/composite.o
 .ARM.attributes
                0x000000f0       0x10 ./zint-master/backend/dllversion.o
 .ARM.attributes
                0x00000100       0x10 ./zint-master/backend/dmatrix.o
 .ARM.attributes
                0x00000110       0x10 ./zint-master/backend/gridmtx.o
 .ARM.attributes
                0x00000120       0x10 ./zint-master/backend/gs1.o
 .ARM.attributes
                0x00000130       0x10 ./zint-master/backend/imail.o
 .ARM.attributes
                0x00000140       0x10 ./zint-master/backend/large.o
 .ARM.attributes
                0x00000150       0x10 ./zint-master/backend/library.o
 .ARM.attributes
                0x00000160       0x10 ./zint-master/backend/maxicode.o
 .ARM.attributes
                0x00000170       0x10 ./zint-master/backend/medical.o
 .ARM.attributes
                0x00000180       0x10 ./zint-master/backend/pdf417.o
 .ARM.attributes
                0x00000190       0x10 ./zint-master/backend/plessey.o
 .ARM.attributes
                0x000001a0       0x10 ./zint-master/backend/png.o
 .ARM.attributes
                0x000001b0       0x10 ./zint-master/backend/postal.o
 .ARM.attributes
                0x000001c0       0x10 ./zint-master/backend/ps.o
 .ARM.attributes
                0x000001d0       0x10 ./zint-master/backend/qr.o
 .ARM.attributes
                0x000001e0       0x10 ./zint-master/backend/reedsol.o
 .ARM.attributes
                0x000001f0       0x10 ./zint-master/backend/render.o
 .ARM.attributes
                0x00000200       0x10 ./zint-master/backend/rss.o
 .ARM.attributes
                0x00000210       0x10 ./zint-master/backend/svg.o
 .ARM.attributes
                0x00000220       0x10 ./zint-master/backend/telepen.o
 .ARM.attributes
                0x00000230       0x10 ./zint-master/backend/upcean.o
 .ARM.attributes
                0x00000240       0x10 ./src1/ContactSmartCard.o
 .ARM.attributes
                0x00000250       0x10 ./src1/JSON_checker.o
 .ARM.attributes
                0x00000260       0x10 ./src1/Z_report.o
 .ARM.attributes
                0x00000270       0x10 ./src1/cJSON.o
 .ARM.attributes
                0x00000280       0x10 ./src1/cardinfo.o
 .ARM.attributes
                0x00000290       0x10 ./src1/cl_smartcard_demo.o
 .ARM.attributes
                0x000002a0       0x10 ./src1/configurations.o
 .ARM.attributes
                0x000002b0       0x10 ./src1/desfire_test.o
 .ARM.attributes
                0x000002c0       0x10 ./src1/display.o
 .ARM.attributes
                0x000002d0       0x10 ./src1/fp_test.o
 .ARM.attributes
                0x000002e0       0x10 ./src1/gprs_demo.o
 .ARM.attributes
                0x000002f0       0x10 ./src1/jsonread.o
 .ARM.attributes
                0x00000300       0x10 ./src1/jsontest.o
 .ARM.attributes
                0x00000310       0x10 ./src1/keyboart.o
 .ARM.attributes
                0x00000320       0x10 ./src1/lcd.o
 .ARM.attributes
                0x00000330       0x10 ./src1/magneticstrip_demo.o
 .ARM.attributes
                0x00000340       0x10 ./src1/main.o
 .ARM.attributes
                0x00000350       0x10 ./src1/menu_back_forth.o
 .ARM.attributes
                0x00000360       0x10 ./src1/menu_hash.o
 .ARM.attributes
                0x00000370       0x10 ./src1/modem_demo.o
 .ARM.attributes
                0x00000380       0x10 ./src1/mutwol.o
 .ARM.attributes
                0x00000390       0x10 ./src1/network_f.o
 .ARM.attributes
                0x000003a0       0x10 ./src1/postslib_extern.o
 .ARM.attributes
                0x000003b0       0x10 ./src1/printer_demo.o
 .ARM.attributes
                0x000003c0       0x10 ./src1/receipt.o
 .ARM.attributes
                0x000003d0       0x10 ./src1/socket_demo.o
 .ARM.attributes
                0x000003e0       0x10 ./src1/sql_functions.o
 .ARM.attributes
                0x000003f0       0x10 ./src1/string_convert.o
 .ARM.attributes
                0x00000400       0x10 ./src1/touch.o
 .ARM.attributes
                0x00000410       0x10 ./src1/touch_demo.o
 .ARM.attributes
                0x00000420       0x10 ./src1/transaction.o
 .ARM.attributes
                0x00000430       0x10 ./src1/uart_demo.o
 .ARM.attributes
                0x00000440       0x10 ./src1/video.o
 .ARM.attributes
                0x00000450       0x10 ./src1/visualstring.o
 .ARM.attributes
                0x00000460       0x10 ./jsonfiles/arraylist.o
 .ARM.attributes
                0x00000470       0x10 ./jsonfiles/debug.o
 .ARM.attributes
                0x00000480       0x10 ./jsonfiles/json_object.o
 .ARM.attributes
                0x00000490       0x10 ./jsonfiles/json_object_iterator.o
 .ARM.attributes
                0x000004a0       0x10 ./jsonfiles/json_tokener.o
 .ARM.attributes
                0x000004b0       0x10 ./jsonfiles/json_util.o
 .ARM.attributes
                0x000004c0       0x10 ./jsonfiles/linkhash.o
 .ARM.attributes
                0x000004d0       0x10 ./jsonfiles/printbuf.o
 .ARM.attributes
                0x000004e0       0x10 /opt/compiler/glibc-oabi-toolchain-arm-generic/lib/gcc/arm-unknown-linux-gnu/4.3.4/libgcc.a(_udivsi3.o)
 .ARM.attributes
                0x000004f0       0x10 /opt/compiler/glibc-oabi-toolchain-arm-generic/lib/gcc/arm-unknown-linux-gnu/4.3.4/libgcc.a(_divsi3.o)
 .ARM.attributes
                0x00000500       0x10 /opt/compiler/glibc-oabi-toolchain-arm-generic/lib/gcc/arm-unknown-linux-gnu/4.3.4/libgcc.a(_umodsi3.o)
 .ARM.attributes
                0x00000510       0x10 /opt/compiler/glibc-oabi-toolchain-arm-generic/lib/gcc/arm-unknown-linux-gnu/4.3.4/libgcc.a(_modsi3.o)
 .ARM.attributes
                0x00000520       0x10 /opt/compiler/glibc-oabi-toolchain-arm-generic/lib/gcc/arm-unknown-linux-gnu/4.3.4/libgcc.a(_dvmd_tls.o)
 .ARM.attributes
                0x00000530       0x10 /opt/compiler/glibc-oabi-toolchain-arm-generic/lib/gcc/arm-unknown-linux-gnu/4.3.4/libgcc.a(_addsubdf3.o)
 .ARM.attributes
                0x00000540       0x10 /opt/compiler/glibc-oabi-toolchain-arm-generic/lib/gcc/arm-unknown-linux-gnu/4.3.4/libgcc.a(_muldivdf3.o)
 .ARM.attributes
                0x00000550       0x10 /opt/compiler/glibc-oabi-toolchain-arm-generic/lib/gcc/arm-unknown-linux-gnu/4.3.4/libgcc.a(_cmpdf2.o)
 .ARM.attributes
                0x00000560       0x10 /opt/compiler/glibc-oabi-toolchain-arm-generic/lib/gcc/arm-unknown-linux-gnu/4.3.4/libgcc.a(_fixdfsi.o)
 .ARM.attributes
                0x00000570       0x10 /opt/compiler/glibc-oabi-toolchain-arm-generic/lib/gcc/arm-unknown-linux-gnu/4.3.4/libgcc.a(_fixunsdfsi.o)
 .ARM.attributes
                0x00000580       0x10 /opt/compiler/glibc-oabi-toolchain-arm-generic/lib/gcc/arm-unknown-linux-gnu/4.3.4/libgcc.a(_truncdfsf2.o)
 .ARM.attributes
                0x00000590       0x10 /opt/compiler/glibc-oabi-toolchain-arm-generic/lib/gcc/arm-unknown-linux-gnu/4.3.4/libgcc.a(_addsubsf3.o)
 .ARM.attributes
                0x000005a0       0x10 /opt/compiler/glibc-oabi-toolchain-arm-generic/lib/gcc/arm-unknown-linux-gnu/4.3.4/libgcc.a(_muldivsf3.o)
 .ARM.attributes
                0x000005b0       0x10 /opt/compiler/glibc-oabi-toolchain-arm-generic/lib/gcc/arm-unknown-linux-gnu/4.3.4/libgcc.a(_cmpsf2.o)
 .ARM.attributes
                0x000005c0       0x10 /opt/compiler/glibc-oabi-toolchain-arm-generic/lib/gcc/arm-unknown-linux-gnu/4.3.4/libgcc.a(_fixsfsi.o)
 .ARM.attributes
                0x000005d0       0x10 /opt/compiler/glibc-oabi-toolchain-arm-generic/lib/gcc/arm-unknown-linux-gnu/4.3.4/libgcc.a(_fixunssfsi.o)
 .ARM.attributes
                0x000005e0       0x10 /opt/compiler/glibc-oabi-toolchain-arm-generic/lib/gcc/arm-unknown-linux-gnu/4.3.4/libgcc.a(_fixdfdi.o)
 .ARM.attributes
                0x000005f0       0x10 /opt/compiler/glibc-oabi-toolchain-arm-generic/lib/gcc/arm-unknown-linux-gnu/4.3.4/libgcc.a(_fixunsdfdi.o)
 .ARM.attributes
                0x00000600       0x10 /opt/compiler/glibc-oabi-toolchain-arm-generic/lib/gcc/arm-unknown-linux-gnu/4.3.4/libgcc.a(_udivdi3.o)
 .ARM.attributes
                0x00000610       0x10 /opt/compiler/glibc-oabi-toolchain-arm-generic/lib/gcc/arm-unknown-linux-gnu/4.3.4/libgcc.a(_umoddi3.o)
 .ARM.attributes
                0x00000620       0x10 /opt/compiler/glibc-oabi-toolchain-arm-generic/lib/gcc/arm-unknown-linux-gnu/4.3.4/libgcc.a(_clz.o)
 .ARM.attributes
                0x00000630       0x10 /opt/compiler/glibc-oabi-toolchain-arm-generic/arm-unknown-linux-gnu//sys-root/usr/lib/libc_nonshared.a(elf-init.oS)
 .ARM.attributes
                0x00000640       0x10 /opt/compiler/glibc-oabi-toolchain-arm-generic/lib/gcc/arm-unknown-linux-gnu/4.3.4/crtend.o
 .ARM.attributes
                0x00000650       0x10 /opt/compiler/glibc-oabi-toolchain-arm-generic/arm-unknown-linux-gnu//sys-root/usr/lib/crtn.o
